
ctarget:     file format elf64-x86-64


Disassembly of section .init:

0000000000400c48 <_init>:
  400c48:	48 83 ec 08          	sub    $0x8,%rsp
  400c4c:	48 8b 05 a5 43 20 00 	mov    0x2043a5(%rip),%rax        # 604ff8 <__gmon_start__>
  400c53:	48 85 c0             	test   %rax,%rax
  400c56:	74 05                	je     400c5d <_init+0x15>
  400c58:	e8 43 02 00 00       	callq  400ea0 <__gmon_start__@plt>
  400c5d:	48 83 c4 08          	add    $0x8,%rsp
  400c61:	c3                   	retq   

Disassembly of section .plt:

0000000000400c70 <.plt>:
  400c70:	ff 35 92 43 20 00    	pushq  0x204392(%rip)        # 605008 <_GLOBAL_OFFSET_TABLE_+0x8>
  400c76:	ff 25 94 43 20 00    	jmpq   *0x204394(%rip)        # 605010 <_GLOBAL_OFFSET_TABLE_+0x10>
  400c7c:	0f 1f 40 00          	nopl   0x0(%rax)

0000000000400c80 <strcasecmp@plt>:
  400c80:	ff 25 92 43 20 00    	jmpq   *0x204392(%rip)        # 605018 <strcasecmp@GLIBC_2.2.5>
  400c86:	68 00 00 00 00       	pushq  $0x0
  400c8b:	e9 e0 ff ff ff       	jmpq   400c70 <.plt>

0000000000400c90 <__errno_location@plt>:
  400c90:	ff 25 8a 43 20 00    	jmpq   *0x20438a(%rip)        # 605020 <__errno_location@GLIBC_2.2.5>
  400c96:	68 01 00 00 00       	pushq  $0x1
  400c9b:	e9 d0 ff ff ff       	jmpq   400c70 <.plt>

0000000000400ca0 <srandom@plt>:
  400ca0:	ff 25 82 43 20 00    	jmpq   *0x204382(%rip)        # 605028 <srandom@GLIBC_2.2.5>
  400ca6:	68 02 00 00 00       	pushq  $0x2
  400cab:	e9 c0 ff ff ff       	jmpq   400c70 <.plt>

0000000000400cb0 <strncmp@plt>:
  400cb0:	ff 25 7a 43 20 00    	jmpq   *0x20437a(%rip)        # 605030 <strncmp@GLIBC_2.2.5>
  400cb6:	68 03 00 00 00       	pushq  $0x3
  400cbb:	e9 b0 ff ff ff       	jmpq   400c70 <.plt>

0000000000400cc0 <strcpy@plt>:
  400cc0:	ff 25 72 43 20 00    	jmpq   *0x204372(%rip)        # 605038 <strcpy@GLIBC_2.2.5>
  400cc6:	68 04 00 00 00       	pushq  $0x4
  400ccb:	e9 a0 ff ff ff       	jmpq   400c70 <.plt>

0000000000400cd0 <puts@plt>:
  400cd0:	ff 25 6a 43 20 00    	jmpq   *0x20436a(%rip)        # 605040 <puts@GLIBC_2.2.5>
  400cd6:	68 05 00 00 00       	pushq  $0x5
  400cdb:	e9 90 ff ff ff       	jmpq   400c70 <.plt>

0000000000400ce0 <write@plt>:
  400ce0:	ff 25 62 43 20 00    	jmpq   *0x204362(%rip)        # 605048 <write@GLIBC_2.2.5>
  400ce6:	68 06 00 00 00       	pushq  $0x6
  400ceb:	e9 80 ff ff ff       	jmpq   400c70 <.plt>

0000000000400cf0 <__stack_chk_fail@plt>:
  400cf0:	ff 25 5a 43 20 00    	jmpq   *0x20435a(%rip)        # 605050 <__stack_chk_fail@GLIBC_2.4>
  400cf6:	68 07 00 00 00       	pushq  $0x7
  400cfb:	e9 70 ff ff ff       	jmpq   400c70 <.plt>

0000000000400d00 <mmap@plt>:
  400d00:	ff 25 52 43 20 00    	jmpq   *0x204352(%rip)        # 605058 <mmap@GLIBC_2.2.5>
  400d06:	68 08 00 00 00       	pushq  $0x8
  400d0b:	e9 60 ff ff ff       	jmpq   400c70 <.plt>

0000000000400d10 <memset@plt>:
  400d10:	ff 25 4a 43 20 00    	jmpq   *0x20434a(%rip)        # 605060 <memset@GLIBC_2.2.5>
  400d16:	68 09 00 00 00       	pushq  $0x9
  400d1b:	e9 50 ff ff ff       	jmpq   400c70 <.plt>

0000000000400d20 <alarm@plt>:
  400d20:	ff 25 42 43 20 00    	jmpq   *0x204342(%rip)        # 605068 <alarm@GLIBC_2.2.5>
  400d26:	68 0a 00 00 00       	pushq  $0xa
  400d2b:	e9 40 ff ff ff       	jmpq   400c70 <.plt>

0000000000400d30 <close@plt>:
  400d30:	ff 25 3a 43 20 00    	jmpq   *0x20433a(%rip)        # 605070 <close@GLIBC_2.2.5>
  400d36:	68 0b 00 00 00       	pushq  $0xb
  400d3b:	e9 30 ff ff ff       	jmpq   400c70 <.plt>

0000000000400d40 <read@plt>:
  400d40:	ff 25 32 43 20 00    	jmpq   *0x204332(%rip)        # 605078 <read@GLIBC_2.2.5>
  400d46:	68 0c 00 00 00       	pushq  $0xc
  400d4b:	e9 20 ff ff ff       	jmpq   400c70 <.plt>

0000000000400d50 <__libc_start_main@plt>:
  400d50:	ff 25 2a 43 20 00    	jmpq   *0x20432a(%rip)        # 605080 <__libc_start_main@GLIBC_2.2.5>
  400d56:	68 0d 00 00 00       	pushq  $0xd
  400d5b:	e9 10 ff ff ff       	jmpq   400c70 <.plt>

0000000000400d60 <signal@plt>:
  400d60:	ff 25 22 43 20 00    	jmpq   *0x204322(%rip)        # 605088 <signal@GLIBC_2.2.5>
  400d66:	68 0e 00 00 00       	pushq  $0xe
  400d6b:	e9 00 ff ff ff       	jmpq   400c70 <.plt>

0000000000400d70 <gethostbyname@plt>:
  400d70:	ff 25 1a 43 20 00    	jmpq   *0x20431a(%rip)        # 605090 <gethostbyname@GLIBC_2.2.5>
  400d76:	68 0f 00 00 00       	pushq  $0xf
  400d7b:	e9 f0 fe ff ff       	jmpq   400c70 <.plt>

0000000000400d80 <__memmove_chk@plt>:
  400d80:	ff 25 12 43 20 00    	jmpq   *0x204312(%rip)        # 605098 <__memmove_chk@GLIBC_2.3.4>
  400d86:	68 10 00 00 00       	pushq  $0x10
  400d8b:	e9 e0 fe ff ff       	jmpq   400c70 <.plt>

0000000000400d90 <strtol@plt>:
  400d90:	ff 25 0a 43 20 00    	jmpq   *0x20430a(%rip)        # 6050a0 <strtol@GLIBC_2.2.5>
  400d96:	68 11 00 00 00       	pushq  $0x11
  400d9b:	e9 d0 fe ff ff       	jmpq   400c70 <.plt>

0000000000400da0 <memcpy@plt>:
  400da0:	ff 25 02 43 20 00    	jmpq   *0x204302(%rip)        # 6050a8 <memcpy@GLIBC_2.14>
  400da6:	68 12 00 00 00       	pushq  $0x12
  400dab:	e9 c0 fe ff ff       	jmpq   400c70 <.plt>

0000000000400db0 <time@plt>:
  400db0:	ff 25 fa 42 20 00    	jmpq   *0x2042fa(%rip)        # 6050b0 <time@GLIBC_2.2.5>
  400db6:	68 13 00 00 00       	pushq  $0x13
  400dbb:	e9 b0 fe ff ff       	jmpq   400c70 <.plt>

0000000000400dc0 <random@plt>:
  400dc0:	ff 25 f2 42 20 00    	jmpq   *0x2042f2(%rip)        # 6050b8 <random@GLIBC_2.2.5>
  400dc6:	68 14 00 00 00       	pushq  $0x14
  400dcb:	e9 a0 fe ff ff       	jmpq   400c70 <.plt>

0000000000400dd0 <_IO_getc@plt>:
  400dd0:	ff 25 ea 42 20 00    	jmpq   *0x2042ea(%rip)        # 6050c0 <_IO_getc@GLIBC_2.2.5>
  400dd6:	68 15 00 00 00       	pushq  $0x15
  400ddb:	e9 90 fe ff ff       	jmpq   400c70 <.plt>

0000000000400de0 <__isoc99_sscanf@plt>:
  400de0:	ff 25 e2 42 20 00    	jmpq   *0x2042e2(%rip)        # 6050c8 <__isoc99_sscanf@GLIBC_2.7>
  400de6:	68 16 00 00 00       	pushq  $0x16
  400deb:	e9 80 fe ff ff       	jmpq   400c70 <.plt>

0000000000400df0 <munmap@plt>:
  400df0:	ff 25 da 42 20 00    	jmpq   *0x2042da(%rip)        # 6050d0 <munmap@GLIBC_2.2.5>
  400df6:	68 17 00 00 00       	pushq  $0x17
  400dfb:	e9 70 fe ff ff       	jmpq   400c70 <.plt>

0000000000400e00 <__printf_chk@plt>:
  400e00:	ff 25 d2 42 20 00    	jmpq   *0x2042d2(%rip)        # 6050d8 <__printf_chk@GLIBC_2.3.4>
  400e06:	68 18 00 00 00       	pushq  $0x18
  400e0b:	e9 60 fe ff ff       	jmpq   400c70 <.plt>

0000000000400e10 <fopen@plt>:
  400e10:	ff 25 ca 42 20 00    	jmpq   *0x2042ca(%rip)        # 6050e0 <fopen@GLIBC_2.2.5>
  400e16:	68 19 00 00 00       	pushq  $0x19
  400e1b:	e9 50 fe ff ff       	jmpq   400c70 <.plt>

0000000000400e20 <getopt@plt>:
  400e20:	ff 25 c2 42 20 00    	jmpq   *0x2042c2(%rip)        # 6050e8 <getopt@GLIBC_2.2.5>
  400e26:	68 1a 00 00 00       	pushq  $0x1a
  400e2b:	e9 40 fe ff ff       	jmpq   400c70 <.plt>

0000000000400e30 <strtoul@plt>:
  400e30:	ff 25 ba 42 20 00    	jmpq   *0x2042ba(%rip)        # 6050f0 <strtoul@GLIBC_2.2.5>
  400e36:	68 1b 00 00 00       	pushq  $0x1b
  400e3b:	e9 30 fe ff ff       	jmpq   400c70 <.plt>

0000000000400e40 <gethostname@plt>:
  400e40:	ff 25 b2 42 20 00    	jmpq   *0x2042b2(%rip)        # 6050f8 <gethostname@GLIBC_2.2.5>
  400e46:	68 1c 00 00 00       	pushq  $0x1c
  400e4b:	e9 20 fe ff ff       	jmpq   400c70 <.plt>

0000000000400e50 <exit@plt>:
  400e50:	ff 25 aa 42 20 00    	jmpq   *0x2042aa(%rip)        # 605100 <exit@GLIBC_2.2.5>
  400e56:	68 1d 00 00 00       	pushq  $0x1d
  400e5b:	e9 10 fe ff ff       	jmpq   400c70 <.plt>

0000000000400e60 <connect@plt>:
  400e60:	ff 25 a2 42 20 00    	jmpq   *0x2042a2(%rip)        # 605108 <connect@GLIBC_2.2.5>
  400e66:	68 1e 00 00 00       	pushq  $0x1e
  400e6b:	e9 00 fe ff ff       	jmpq   400c70 <.plt>

0000000000400e70 <__fprintf_chk@plt>:
  400e70:	ff 25 9a 42 20 00    	jmpq   *0x20429a(%rip)        # 605110 <__fprintf_chk@GLIBC_2.3.4>
  400e76:	68 1f 00 00 00       	pushq  $0x1f
  400e7b:	e9 f0 fd ff ff       	jmpq   400c70 <.plt>

0000000000400e80 <__sprintf_chk@plt>:
  400e80:	ff 25 92 42 20 00    	jmpq   *0x204292(%rip)        # 605118 <__sprintf_chk@GLIBC_2.3.4>
  400e86:	68 20 00 00 00       	pushq  $0x20
  400e8b:	e9 e0 fd ff ff       	jmpq   400c70 <.plt>

0000000000400e90 <socket@plt>:
  400e90:	ff 25 8a 42 20 00    	jmpq   *0x20428a(%rip)        # 605120 <socket@GLIBC_2.2.5>
  400e96:	68 21 00 00 00       	pushq  $0x21
  400e9b:	e9 d0 fd ff ff       	jmpq   400c70 <.plt>

Disassembly of section .plt.got:

0000000000400ea0 <__gmon_start__@plt>:
  400ea0:	ff 25 52 41 20 00    	jmpq   *0x204152(%rip)        # 604ff8 <__gmon_start__>
  400ea6:	66 90                	xchg   %ax,%ax

Disassembly of section .text:

0000000000400eb0 <_start>:
  400eb0:	31 ed                	xor    %ebp,%ebp
  400eb2:	49 89 d1             	mov    %rdx,%r9
  400eb5:	5e                   	pop    %rsi
  400eb6:	48 89 e2             	mov    %rsp,%rdx
  400eb9:	48 83 e4 f0          	and    $0xfffffffffffffff0,%rsp
  400ebd:	50                   	push   %rax
  400ebe:	54                   	push   %rsp
  400ebf:	49 c7 c0 90 2e 40 00 	mov    $0x402e90,%r8
  400ec6:	48 c7 c1 20 2e 40 00 	mov    $0x402e20,%rcx
  400ecd:	48 c7 c7 b5 11 40 00 	mov    $0x4011b5,%rdi
  400ed4:	e8 77 fe ff ff       	callq  400d50 <__libc_start_main@plt>
  400ed9:	f4                   	hlt    
  400eda:	66 0f 1f 44 00 00    	nopw   0x0(%rax,%rax,1)

0000000000400ee0 <deregister_tm_clones>:
  400ee0:	b8 b7 54 60 00       	mov    $0x6054b7,%eax
  400ee5:	55                   	push   %rbp
  400ee6:	48 2d b0 54 60 00    	sub    $0x6054b0,%rax
  400eec:	48 83 f8 0e          	cmp    $0xe,%rax
  400ef0:	48 89 e5             	mov    %rsp,%rbp
  400ef3:	76 1b                	jbe    400f10 <deregister_tm_clones+0x30>
  400ef5:	b8 00 00 00 00       	mov    $0x0,%eax
  400efa:	48 85 c0             	test   %rax,%rax
  400efd:	74 11                	je     400f10 <deregister_tm_clones+0x30>
  400eff:	5d                   	pop    %rbp
  400f00:	bf b0 54 60 00       	mov    $0x6054b0,%edi
  400f05:	ff e0                	jmpq   *%rax
  400f07:	66 0f 1f 84 00 00 00 	nopw   0x0(%rax,%rax,1)
  400f0e:	00 00 
  400f10:	5d                   	pop    %rbp
  400f11:	c3                   	retq   
  400f12:	0f 1f 40 00          	nopl   0x0(%rax)
  400f16:	66 2e 0f 1f 84 00 00 	nopw   %cs:0x0(%rax,%rax,1)
  400f1d:	00 00 00 

0000000000400f20 <register_tm_clones>:
  400f20:	be b0 54 60 00       	mov    $0x6054b0,%esi
  400f25:	55                   	push   %rbp
  400f26:	48 81 ee b0 54 60 00 	sub    $0x6054b0,%rsi
  400f2d:	48 c1 fe 03          	sar    $0x3,%rsi
  400f31:	48 89 e5             	mov    %rsp,%rbp
  400f34:	48 89 f0             	mov    %rsi,%rax
  400f37:	48 c1 e8 3f          	shr    $0x3f,%rax
  400f3b:	48 01 c6             	add    %rax,%rsi
  400f3e:	48 d1 fe             	sar    %rsi
  400f41:	74 15                	je     400f58 <register_tm_clones+0x38>
  400f43:	b8 00 00 00 00       	mov    $0x0,%eax
  400f48:	48 85 c0             	test   %rax,%rax
  400f4b:	74 0b                	je     400f58 <register_tm_clones+0x38>
  400f4d:	5d                   	pop    %rbp
  400f4e:	bf b0 54 60 00       	mov    $0x6054b0,%edi
  400f53:	ff e0                	jmpq   *%rax
  400f55:	0f 1f 00             	nopl   (%rax)
  400f58:	5d                   	pop    %rbp
  400f59:	c3                   	retq   
  400f5a:	66 0f 1f 44 00 00    	nopw   0x0(%rax,%rax,1)

0000000000400f60 <__do_global_dtors_aux>:
  400f60:	80 3d 81 45 20 00 00 	cmpb   $0x0,0x204581(%rip)        # 6054e8 <completed.7594>
  400f67:	75 11                	jne    400f7a <__do_global_dtors_aux+0x1a>
  400f69:	55                   	push   %rbp
  400f6a:	48 89 e5             	mov    %rsp,%rbp
  400f6d:	e8 6e ff ff ff       	callq  400ee0 <deregister_tm_clones>
  400f72:	5d                   	pop    %rbp
  400f73:	c6 05 6e 45 20 00 01 	movb   $0x1,0x20456e(%rip)        # 6054e8 <completed.7594>
  400f7a:	f3 c3                	repz retq 
  400f7c:	0f 1f 40 00          	nopl   0x0(%rax)

0000000000400f80 <frame_dummy>:
  400f80:	bf 20 4e 60 00       	mov    $0x604e20,%edi
  400f85:	48 83 3f 00          	cmpq   $0x0,(%rdi)
  400f89:	75 05                	jne    400f90 <frame_dummy+0x10>
  400f8b:	eb 93                	jmp    400f20 <register_tm_clones>
  400f8d:	0f 1f 00             	nopl   (%rax)
  400f90:	b8 00 00 00 00       	mov    $0x0,%eax
  400f95:	48 85 c0             	test   %rax,%rax
  400f98:	74 f1                	je     400f8b <frame_dummy+0xb>
  400f9a:	55                   	push   %rbp
  400f9b:	48 89 e5             	mov    %rsp,%rbp
  400f9e:	ff d0                	callq  *%rax
  400fa0:	5d                   	pop    %rbp
  400fa1:	e9 7a ff ff ff       	jmpq   400f20 <register_tm_clones>

0000000000400fa6 <usage>:
  400fa6:	48 83 ec 08          	sub    $0x8,%rsp
  400faa:	48 89 fa             	mov    %rdi,%rdx
  400fad:	83 3d 74 45 20 00 00 	cmpl   $0x0,0x204574(%rip)        # 605528 <is_checker>
  400fb4:	74 3e                	je     400ff4 <usage+0x4e>
  400fb6:	be a8 2e 40 00       	mov    $0x402ea8,%esi
  400fbb:	bf 01 00 00 00       	mov    $0x1,%edi
  400fc0:	b8 00 00 00 00       	mov    $0x0,%eax
  400fc5:	e8 36 fe ff ff       	callq  400e00 <__printf_chk@plt>
  400fca:	bf e0 2e 40 00       	mov    $0x402ee0,%edi
  400fcf:	e8 fc fc ff ff       	callq  400cd0 <puts@plt>
  400fd4:	bf 58 30 40 00       	mov    $0x403058,%edi
  400fd9:	e8 f2 fc ff ff       	callq  400cd0 <puts@plt>
  400fde:	bf 08 2f 40 00       	mov    $0x402f08,%edi
  400fe3:	e8 e8 fc ff ff       	callq  400cd0 <puts@plt>
  400fe8:	bf 72 30 40 00       	mov    $0x403072,%edi
  400fed:	e8 de fc ff ff       	callq  400cd0 <puts@plt>
  400ff2:	eb 32                	jmp    401026 <usage+0x80>
  400ff4:	be 8e 30 40 00       	mov    $0x40308e,%esi
  400ff9:	bf 01 00 00 00       	mov    $0x1,%edi
  400ffe:	b8 00 00 00 00       	mov    $0x0,%eax
  401003:	e8 f8 fd ff ff       	callq  400e00 <__printf_chk@plt>
  401008:	bf 30 2f 40 00       	mov    $0x402f30,%edi
  40100d:	e8 be fc ff ff       	callq  400cd0 <puts@plt>
  401012:	bf 58 2f 40 00       	mov    $0x402f58,%edi
  401017:	e8 b4 fc ff ff       	callq  400cd0 <puts@plt>
  40101c:	bf ac 30 40 00       	mov    $0x4030ac,%edi
  401021:	e8 aa fc ff ff       	callq  400cd0 <puts@plt>
  401026:	bf 00 00 00 00       	mov    $0x0,%edi
  40102b:	e8 20 fe ff ff       	callq  400e50 <exit@plt>

0000000000401030 <initialize_target>:
  401030:	55                   	push   %rbp
  401031:	53                   	push   %rbx
  401032:	48 81 ec 18 21 00 00 	sub    $0x2118,%rsp
  401039:	89 f5                	mov    %esi,%ebp
  40103b:	64 48 8b 04 25 28 00 	mov    %fs:0x28,%rax
  401042:	00 00 
  401044:	48 89 84 24 08 21 00 	mov    %rax,0x2108(%rsp)
  40104b:	00 
  40104c:	31 c0                	xor    %eax,%eax
  40104e:	89 3d c4 44 20 00    	mov    %edi,0x2044c4(%rip)        # 605518 <check_level>
  401054:	8b 3d 0e 41 20 00    	mov    0x20410e(%rip),%edi        # 605168 <target_id>
  40105a:	e8 a2 1d 00 00       	callq  402e01 <gencookie>
  40105f:	89 05 bf 44 20 00    	mov    %eax,0x2044bf(%rip)        # 605524 <cookie>
  401065:	89 c7                	mov    %eax,%edi
  401067:	e8 95 1d 00 00       	callq  402e01 <gencookie>
  40106c:	89 05 ae 44 20 00    	mov    %eax,0x2044ae(%rip)        # 605520 <authkey>
  401072:	8b 05 f0 40 20 00    	mov    0x2040f0(%rip),%eax        # 605168 <target_id>
  401078:	8d 78 01             	lea    0x1(%rax),%edi
  40107b:	e8 20 fc ff ff       	callq  400ca0 <srandom@plt>
  401080:	e8 3b fd ff ff       	callq  400dc0 <random@plt>
  401085:	89 c7                	mov    %eax,%edi
  401087:	e8 03 03 00 00       	callq  40138f <scramble>
  40108c:	89 c3                	mov    %eax,%ebx
  40108e:	85 ed                	test   %ebp,%ebp
  401090:	74 18                	je     4010aa <initialize_target+0x7a>
  401092:	bf 00 00 00 00       	mov    $0x0,%edi
  401097:	e8 14 fd ff ff       	callq  400db0 <time@plt>
  40109c:	89 c7                	mov    %eax,%edi
  40109e:	e8 fd fb ff ff       	callq  400ca0 <srandom@plt>
  4010a3:	e8 18 fd ff ff       	callq  400dc0 <random@plt>
  4010a8:	eb 05                	jmp    4010af <initialize_target+0x7f>
  4010aa:	b8 00 00 00 00       	mov    $0x0,%eax
  4010af:	01 c3                	add    %eax,%ebx
  4010b1:	0f b7 db             	movzwl %bx,%ebx
  4010b4:	8d 04 dd 00 01 00 00 	lea    0x100(,%rbx,8),%eax
  4010bb:	89 c0                	mov    %eax,%eax
  4010bd:	48 89 05 dc 43 20 00 	mov    %rax,0x2043dc(%rip)        # 6054a0 <buf_offset>
  4010c4:	c6 05 7d 50 20 00 63 	movb   $0x63,0x20507d(%rip)        # 606148 <target_prefix>
  4010cb:	83 3d d6 43 20 00 00 	cmpl   $0x0,0x2043d6(%rip)        # 6054a8 <notify>
  4010d2:	0f 84 bb 00 00 00    	je     401193 <initialize_target+0x163>
  4010d8:	83 3d 49 44 20 00 00 	cmpl   $0x0,0x204449(%rip)        # 605528 <is_checker>
  4010df:	0f 85 ae 00 00 00    	jne    401193 <initialize_target+0x163>
  4010e5:	be 00 01 00 00       	mov    $0x100,%esi
  4010ea:	48 89 e7             	mov    %rsp,%rdi
  4010ed:	e8 4e fd ff ff       	callq  400e40 <gethostname@plt>
  4010f2:	85 c0                	test   %eax,%eax
  4010f4:	74 25                	je     40111b <initialize_target+0xeb>
  4010f6:	bf 88 2f 40 00       	mov    $0x402f88,%edi
  4010fb:	e8 d0 fb ff ff       	callq  400cd0 <puts@plt>
  401100:	bf 08 00 00 00       	mov    $0x8,%edi
  401105:	e8 46 fd ff ff       	callq  400e50 <exit@plt>
  40110a:	48 89 e6             	mov    %rsp,%rsi
  40110d:	e8 6e fb ff ff       	callq  400c80 <strcasecmp@plt>
  401112:	85 c0                	test   %eax,%eax
  401114:	74 21                	je     401137 <initialize_target+0x107>
  401116:	83 c3 01             	add    $0x1,%ebx
  401119:	eb 05                	jmp    401120 <initialize_target+0xf0>
  40111b:	bb 00 00 00 00       	mov    $0x0,%ebx
  401120:	48 63 c3             	movslq %ebx,%rax
  401123:	48 8b 3c c5 80 51 60 	mov    0x605180(,%rax,8),%rdi
  40112a:	00 
  40112b:	48 85 ff             	test   %rdi,%rdi
  40112e:	75 da                	jne    40110a <initialize_target+0xda>
  401130:	b8 00 00 00 00       	mov    $0x0,%eax
  401135:	eb 05                	jmp    40113c <initialize_target+0x10c>
  401137:	b8 01 00 00 00       	mov    $0x1,%eax
  40113c:	85 c0                	test   %eax,%eax
  40113e:	75 1c                	jne    40115c <initialize_target+0x12c>
  401140:	48 89 e2             	mov    %rsp,%rdx
  401143:	be c0 2f 40 00       	mov    $0x402fc0,%esi
  401148:	bf 01 00 00 00       	mov    $0x1,%edi
  40114d:	e8 ae fc ff ff       	callq  400e00 <__printf_chk@plt>
  401152:	bf 08 00 00 00       	mov    $0x8,%edi
  401157:	e8 f4 fc ff ff       	callq  400e50 <exit@plt>
  40115c:	48 8d bc 24 00 01 00 	lea    0x100(%rsp),%rdi
  401163:	00 
  401164:	e8 02 1a 00 00       	callq  402b6b <init_driver>
  401169:	85 c0                	test   %eax,%eax
  40116b:	79 26                	jns    401193 <initialize_target+0x163>
  40116d:	48 8d 94 24 00 01 00 	lea    0x100(%rsp),%rdx
  401174:	00 
  401175:	be 00 30 40 00       	mov    $0x403000,%esi
  40117a:	bf 01 00 00 00       	mov    $0x1,%edi
  40117f:	b8 00 00 00 00       	mov    $0x0,%eax
  401184:	e8 77 fc ff ff       	callq  400e00 <__printf_chk@plt>
  401189:	bf 08 00 00 00       	mov    $0x8,%edi
  40118e:	e8 bd fc ff ff       	callq  400e50 <exit@plt>
  401193:	48 8b 84 24 08 21 00 	mov    0x2108(%rsp),%rax
  40119a:	00 
  40119b:	64 48 33 04 25 28 00 	xor    %fs:0x28,%rax
  4011a2:	00 00 
  4011a4:	74 05                	je     4011ab <initialize_target+0x17b>
  4011a6:	e8 45 fb ff ff       	callq  400cf0 <__stack_chk_fail@plt>
  4011ab:	48 81 c4 18 21 00 00 	add    $0x2118,%rsp
  4011b2:	5b                   	pop    %rbx
  4011b3:	5d                   	pop    %rbp
  4011b4:	c3                   	retq   

00000000004011b5 <main>:
  4011b5:	41 56                	push   %r14
  4011b7:	41 55                	push   %r13
  4011b9:	41 54                	push   %r12
  4011bb:	55                   	push   %rbp
  4011bc:	53                   	push   %rbx
  4011bd:	41 89 fc             	mov    %edi,%r12d
  4011c0:	48 89 f3             	mov    %rsi,%rbx
  4011c3:	be a6 1e 40 00       	mov    $0x401ea6,%esi
  4011c8:	bf 0b 00 00 00       	mov    $0xb,%edi
  4011cd:	e8 8e fb ff ff       	callq  400d60 <signal@plt>
  4011d2:	be 58 1e 40 00       	mov    $0x401e58,%esi
  4011d7:	bf 07 00 00 00       	mov    $0x7,%edi
  4011dc:	e8 7f fb ff ff       	callq  400d60 <signal@plt>
  4011e1:	be f4 1e 40 00       	mov    $0x401ef4,%esi
  4011e6:	bf 04 00 00 00       	mov    $0x4,%edi
  4011eb:	e8 70 fb ff ff       	callq  400d60 <signal@plt>
  4011f0:	83 3d 31 43 20 00 00 	cmpl   $0x0,0x204331(%rip)        # 605528 <is_checker>
  4011f7:	74 20                	je     401219 <main+0x64>
  4011f9:	be 42 1f 40 00       	mov    $0x401f42,%esi
  4011fe:	bf 0e 00 00 00       	mov    $0xe,%edi
  401203:	e8 58 fb ff ff       	callq  400d60 <signal@plt>
  401208:	bf 05 00 00 00       	mov    $0x5,%edi
  40120d:	e8 0e fb ff ff       	callq  400d20 <alarm@plt>
  401212:	bd ca 30 40 00       	mov    $0x4030ca,%ebp
  401217:	eb 05                	jmp    40121e <main+0x69>
  401219:	bd c5 30 40 00       	mov    $0x4030c5,%ebp
  40121e:	48 8b 05 9b 42 20 00 	mov    0x20429b(%rip),%rax        # 6054c0 <stdin@@GLIBC_2.2.5>
  401225:	48 89 05 e4 42 20 00 	mov    %rax,0x2042e4(%rip)        # 605510 <infile>
  40122c:	41 bd 00 00 00 00    	mov    $0x0,%r13d
  401232:	41 be 00 00 00 00    	mov    $0x0,%r14d
  401238:	e9 c6 00 00 00       	jmpq   401303 <main+0x14e>
  40123d:	83 e8 61             	sub    $0x61,%eax
  401240:	3c 10                	cmp    $0x10,%al
  401242:	0f 87 9c 00 00 00    	ja     4012e4 <main+0x12f>
  401248:	0f b6 c0             	movzbl %al,%eax
  40124b:	ff 24 c5 10 31 40 00 	jmpq   *0x403110(,%rax,8)
  401252:	48 8b 3b             	mov    (%rbx),%rdi
  401255:	e8 4c fd ff ff       	callq  400fa6 <usage>
  40125a:	be 0d 35 40 00       	mov    $0x40350d,%esi
  40125f:	48 8b 3d 62 42 20 00 	mov    0x204262(%rip),%rdi        # 6054c8 <optarg@@GLIBC_2.2.5>
  401266:	e8 a5 fb ff ff       	callq  400e10 <fopen@plt>
  40126b:	48 89 05 9e 42 20 00 	mov    %rax,0x20429e(%rip)        # 605510 <infile>
  401272:	48 85 c0             	test   %rax,%rax
  401275:	0f 85 88 00 00 00    	jne    401303 <main+0x14e>
  40127b:	48 8b 0d 46 42 20 00 	mov    0x204246(%rip),%rcx        # 6054c8 <optarg@@GLIBC_2.2.5>
  401282:	ba d2 30 40 00       	mov    $0x4030d2,%edx
  401287:	be 01 00 00 00       	mov    $0x1,%esi
  40128c:	48 8b 3d 4d 42 20 00 	mov    0x20424d(%rip),%rdi        # 6054e0 <stderr@@GLIBC_2.2.5>
  401293:	e8 d8 fb ff ff       	callq  400e70 <__fprintf_chk@plt>
  401298:	b8 01 00 00 00       	mov    $0x1,%eax
  40129d:	e9 e4 00 00 00       	jmpq   401386 <main+0x1d1>
  4012a2:	ba 10 00 00 00       	mov    $0x10,%edx
  4012a7:	be 00 00 00 00       	mov    $0x0,%esi
  4012ac:	48 8b 3d 15 42 20 00 	mov    0x204215(%rip),%rdi        # 6054c8 <optarg@@GLIBC_2.2.5>
  4012b3:	e8 78 fb ff ff       	callq  400e30 <strtoul@plt>
  4012b8:	41 89 c6             	mov    %eax,%r14d
  4012bb:	eb 46                	jmp    401303 <main+0x14e>
  4012bd:	ba 0a 00 00 00       	mov    $0xa,%edx
  4012c2:	be 00 00 00 00       	mov    $0x0,%esi
  4012c7:	48 8b 3d fa 41 20 00 	mov    0x2041fa(%rip),%rdi        # 6054c8 <optarg@@GLIBC_2.2.5>
  4012ce:	e8 bd fa ff ff       	callq  400d90 <strtol@plt>
  4012d3:	41 89 c5             	mov    %eax,%r13d
  4012d6:	eb 2b                	jmp    401303 <main+0x14e>
  4012d8:	c7 05 c6 41 20 00 00 	movl   $0x0,0x2041c6(%rip)        # 6054a8 <notify>
  4012df:	00 00 00 
  4012e2:	eb 1f                	jmp    401303 <main+0x14e>
  4012e4:	0f be d2             	movsbl %dl,%edx
  4012e7:	be ef 30 40 00       	mov    $0x4030ef,%esi
  4012ec:	bf 01 00 00 00       	mov    $0x1,%edi
  4012f1:	b8 00 00 00 00       	mov    $0x0,%eax
  4012f6:	e8 05 fb ff ff       	callq  400e00 <__printf_chk@plt>
  4012fb:	48 8b 3b             	mov    (%rbx),%rdi
  4012fe:	e8 a3 fc ff ff       	callq  400fa6 <usage>
  401303:	48 89 ea             	mov    %rbp,%rdx
  401306:	48 89 de             	mov    %rbx,%rsi
  401309:	44 89 e7             	mov    %r12d,%edi
  40130c:	e8 0f fb ff ff       	callq  400e20 <getopt@plt>
  401311:	89 c2                	mov    %eax,%edx
  401313:	3c ff                	cmp    $0xff,%al
  401315:	0f 85 22 ff ff ff    	jne    40123d <main+0x88>
  40131b:	be 00 00 00 00       	mov    $0x0,%esi
  401320:	44 89 ef             	mov    %r13d,%edi
  401323:	e8 08 fd ff ff       	callq  401030 <initialize_target>
  401328:	83 3d f9 41 20 00 00 	cmpl   $0x0,0x2041f9(%rip)        # 605528 <is_checker>
  40132f:	74 2a                	je     40135b <main+0x1a6>
  401331:	44 3b 35 e8 41 20 00 	cmp    0x2041e8(%rip),%r14d        # 605520 <authkey>
  401338:	74 21                	je     40135b <main+0x1a6>
  40133a:	44 89 f2             	mov    %r14d,%edx
  40133d:	be 28 30 40 00       	mov    $0x403028,%esi
  401342:	bf 01 00 00 00       	mov    $0x1,%edi
  401347:	b8 00 00 00 00       	mov    $0x0,%eax
  40134c:	e8 af fa ff ff       	callq  400e00 <__printf_chk@plt>
  401351:	b8 00 00 00 00       	mov    $0x0,%eax
  401356:	e8 99 07 00 00       	callq  401af4 <check_fail>
  40135b:	8b 15 c3 41 20 00    	mov    0x2041c3(%rip),%edx        # 605524 <cookie>
  401361:	be 02 31 40 00       	mov    $0x403102,%esi
  401366:	bf 01 00 00 00       	mov    $0x1,%edi
  40136b:	b8 00 00 00 00       	mov    $0x0,%eax
  401370:	e8 8b fa ff ff       	callq  400e00 <__printf_chk@plt>
  401375:	48 8b 3d 24 41 20 00 	mov    0x204124(%rip),%rdi        # 6054a0 <buf_offset>
  40137c:	e8 c1 0c 00 00       	callq  402042 <stable_launch>
  401381:	b8 00 00 00 00       	mov    $0x0,%eax
  401386:	5b                   	pop    %rbx
  401387:	5d                   	pop    %rbp
  401388:	41 5c                	pop    %r12
  40138a:	41 5d                	pop    %r13
  40138c:	41 5e                	pop    %r14
  40138e:	c3                   	retq   

000000000040138f <scramble>:
  40138f:	48 83 ec 38          	sub    $0x38,%rsp
  401393:	64 48 8b 04 25 28 00 	mov    %fs:0x28,%rax
  40139a:	00 00 
  40139c:	48 89 44 24 28       	mov    %rax,0x28(%rsp)
  4013a1:	31 c0                	xor    %eax,%eax
  4013a3:	eb 10                	jmp    4013b5 <scramble+0x26>
  4013a5:	69 d0 98 45 00 00    	imul   $0x4598,%eax,%edx
  4013ab:	01 fa                	add    %edi,%edx
  4013ad:	89 c1                	mov    %eax,%ecx
  4013af:	89 14 8c             	mov    %edx,(%rsp,%rcx,4)
  4013b2:	83 c0 01             	add    $0x1,%eax
  4013b5:	83 f8 09             	cmp    $0x9,%eax
  4013b8:	76 eb                	jbe    4013a5 <scramble+0x16>
  4013ba:	8b 44 24 24          	mov    0x24(%rsp),%eax
  4013be:	69 c0 22 1a 00 00    	imul   $0x1a22,%eax,%eax
  4013c4:	89 44 24 24          	mov    %eax,0x24(%rsp)
  4013c8:	8b 44 24 0c          	mov    0xc(%rsp),%eax
  4013cc:	69 c0 57 5a 00 00    	imul   $0x5a57,%eax,%eax
  4013d2:	89 44 24 0c          	mov    %eax,0xc(%rsp)
  4013d6:	8b 44 24 04          	mov    0x4(%rsp),%eax
  4013da:	69 c0 de 08 00 00    	imul   $0x8de,%eax,%eax
  4013e0:	89 44 24 04          	mov    %eax,0x4(%rsp)
  4013e4:	8b 44 24 0c          	mov    0xc(%rsp),%eax
  4013e8:	69 c0 b9 11 00 00    	imul   $0x11b9,%eax,%eax
  4013ee:	89 44 24 0c          	mov    %eax,0xc(%rsp)
  4013f2:	8b 44 24 04          	mov    0x4(%rsp),%eax
  4013f6:	69 c0 f7 9c 00 00    	imul   $0x9cf7,%eax,%eax
  4013fc:	89 44 24 04          	mov    %eax,0x4(%rsp)
  401400:	8b 44 24 1c          	mov    0x1c(%rsp),%eax
  401404:	69 c0 64 35 00 00    	imul   $0x3564,%eax,%eax
  40140a:	89 44 24 1c          	mov    %eax,0x1c(%rsp)
  40140e:	8b 44 24 10          	mov    0x10(%rsp),%eax
  401412:	69 c0 7f af 00 00    	imul   $0xaf7f,%eax,%eax
  401418:	89 44 24 10          	mov    %eax,0x10(%rsp)
  40141c:	8b 44 24 20          	mov    0x20(%rsp),%eax
  401420:	69 c0 d4 f2 00 00    	imul   $0xf2d4,%eax,%eax
  401426:	89 44 24 20          	mov    %eax,0x20(%rsp)
  40142a:	8b 44 24 1c          	mov    0x1c(%rsp),%eax
  40142e:	69 c0 c1 5c 00 00    	imul   $0x5cc1,%eax,%eax
  401434:	89 44 24 1c          	mov    %eax,0x1c(%rsp)
  401438:	8b 44 24 20          	mov    0x20(%rsp),%eax
  40143c:	69 c0 51 0e 00 00    	imul   $0xe51,%eax,%eax
  401442:	89 44 24 20          	mov    %eax,0x20(%rsp)
  401446:	8b 44 24 08          	mov    0x8(%rsp),%eax
  40144a:	69 c0 69 a4 00 00    	imul   $0xa469,%eax,%eax
  401450:	89 44 24 08          	mov    %eax,0x8(%rsp)
  401454:	8b 44 24 1c          	mov    0x1c(%rsp),%eax
  401458:	69 c0 d4 28 00 00    	imul   $0x28d4,%eax,%eax
  40145e:	89 44 24 1c          	mov    %eax,0x1c(%rsp)
  401462:	8b 44 24 1c          	mov    0x1c(%rsp),%eax
  401466:	69 c0 36 28 00 00    	imul   $0x2836,%eax,%eax
  40146c:	89 44 24 1c          	mov    %eax,0x1c(%rsp)
  401470:	8b 44 24 0c          	mov    0xc(%rsp),%eax
  401474:	69 c0 57 9d 00 00    	imul   $0x9d57,%eax,%eax
  40147a:	89 44 24 0c          	mov    %eax,0xc(%rsp)
  40147e:	8b 44 24 08          	mov    0x8(%rsp),%eax
  401482:	69 c0 91 13 00 00    	imul   $0x1391,%eax,%eax
  401488:	89 44 24 08          	mov    %eax,0x8(%rsp)
  40148c:	8b 44 24 1c          	mov    0x1c(%rsp),%eax
  401490:	69 c0 6c a4 00 00    	imul   $0xa46c,%eax,%eax
  401496:	89 44 24 1c          	mov    %eax,0x1c(%rsp)
  40149a:	8b 44 24 0c          	mov    0xc(%rsp),%eax
  40149e:	69 c0 4d fb 00 00    	imul   $0xfb4d,%eax,%eax
  4014a4:	89 44 24 0c          	mov    %eax,0xc(%rsp)
  4014a8:	8b 44 24 14          	mov    0x14(%rsp),%eax
  4014ac:	69 c0 81 86 00 00    	imul   $0x8681,%eax,%eax
  4014b2:	89 44 24 14          	mov    %eax,0x14(%rsp)
  4014b6:	8b 04 24             	mov    (%rsp),%eax
  4014b9:	69 c0 99 c8 00 00    	imul   $0xc899,%eax,%eax
  4014bf:	89 04 24             	mov    %eax,(%rsp)
  4014c2:	8b 44 24 18          	mov    0x18(%rsp),%eax
  4014c6:	69 c0 ac 9e 00 00    	imul   $0x9eac,%eax,%eax
  4014cc:	89 44 24 18          	mov    %eax,0x18(%rsp)
  4014d0:	8b 44 24 1c          	mov    0x1c(%rsp),%eax
  4014d4:	69 c0 af 84 00 00    	imul   $0x84af,%eax,%eax
  4014da:	89 44 24 1c          	mov    %eax,0x1c(%rsp)
  4014de:	8b 04 24             	mov    (%rsp),%eax
  4014e1:	69 c0 97 9e 00 00    	imul   $0x9e97,%eax,%eax
  4014e7:	89 04 24             	mov    %eax,(%rsp)
  4014ea:	8b 44 24 18          	mov    0x18(%rsp),%eax
  4014ee:	69 c0 07 8d 00 00    	imul   $0x8d07,%eax,%eax
  4014f4:	89 44 24 18          	mov    %eax,0x18(%rsp)
  4014f8:	8b 44 24 20          	mov    0x20(%rsp),%eax
  4014fc:	69 c0 c5 c1 00 00    	imul   $0xc1c5,%eax,%eax
  401502:	89 44 24 20          	mov    %eax,0x20(%rsp)
  401506:	8b 44 24 18          	mov    0x18(%rsp),%eax
  40150a:	69 c0 81 21 00 00    	imul   $0x2181,%eax,%eax
  401510:	89 44 24 18          	mov    %eax,0x18(%rsp)
  401514:	8b 44 24 08          	mov    0x8(%rsp),%eax
  401518:	69 c0 f7 d3 00 00    	imul   $0xd3f7,%eax,%eax
  40151e:	89 44 24 08          	mov    %eax,0x8(%rsp)
  401522:	8b 44 24 24          	mov    0x24(%rsp),%eax
  401526:	69 c0 d4 df 00 00    	imul   $0xdfd4,%eax,%eax
  40152c:	89 44 24 24          	mov    %eax,0x24(%rsp)
  401530:	8b 44 24 10          	mov    0x10(%rsp),%eax
  401534:	69 c0 12 aa 00 00    	imul   $0xaa12,%eax,%eax
  40153a:	89 44 24 10          	mov    %eax,0x10(%rsp)
  40153e:	8b 44 24 1c          	mov    0x1c(%rsp),%eax
  401542:	69 c0 15 e9 00 00    	imul   $0xe915,%eax,%eax
  401548:	89 44 24 1c          	mov    %eax,0x1c(%rsp)
  40154c:	8b 44 24 10          	mov    0x10(%rsp),%eax
  401550:	69 c0 dd 66 00 00    	imul   $0x66dd,%eax,%eax
  401556:	89 44 24 10          	mov    %eax,0x10(%rsp)
  40155a:	8b 44 24 04          	mov    0x4(%rsp),%eax
  40155e:	69 c0 39 28 00 00    	imul   $0x2839,%eax,%eax
  401564:	89 44 24 04          	mov    %eax,0x4(%rsp)
  401568:	8b 44 24 0c          	mov    0xc(%rsp),%eax
  40156c:	69 c0 59 2a 00 00    	imul   $0x2a59,%eax,%eax
  401572:	89 44 24 0c          	mov    %eax,0xc(%rsp)
  401576:	8b 44 24 18          	mov    0x18(%rsp),%eax
  40157a:	69 c0 0d 0a 00 00    	imul   $0xa0d,%eax,%eax
  401580:	89 44 24 18          	mov    %eax,0x18(%rsp)
  401584:	8b 44 24 10          	mov    0x10(%rsp),%eax
  401588:	69 c0 b2 27 00 00    	imul   $0x27b2,%eax,%eax
  40158e:	89 44 24 10          	mov    %eax,0x10(%rsp)
  401592:	8b 44 24 24          	mov    0x24(%rsp),%eax
  401596:	69 c0 15 49 00 00    	imul   $0x4915,%eax,%eax
  40159c:	89 44 24 24          	mov    %eax,0x24(%rsp)
  4015a0:	8b 44 24 08          	mov    0x8(%rsp),%eax
  4015a4:	69 c0 36 38 00 00    	imul   $0x3836,%eax,%eax
  4015aa:	89 44 24 08          	mov    %eax,0x8(%rsp)
  4015ae:	8b 44 24 18          	mov    0x18(%rsp),%eax
  4015b2:	69 c0 70 9a 00 00    	imul   $0x9a70,%eax,%eax
  4015b8:	89 44 24 18          	mov    %eax,0x18(%rsp)
  4015bc:	8b 44 24 04          	mov    0x4(%rsp),%eax
  4015c0:	69 c0 f3 01 00 00    	imul   $0x1f3,%eax,%eax
  4015c6:	89 44 24 04          	mov    %eax,0x4(%rsp)
  4015ca:	8b 44 24 10          	mov    0x10(%rsp),%eax
  4015ce:	69 c0 3a 68 00 00    	imul   $0x683a,%eax,%eax
  4015d4:	89 44 24 10          	mov    %eax,0x10(%rsp)
  4015d8:	8b 44 24 1c          	mov    0x1c(%rsp),%eax
  4015dc:	69 c0 3f 11 00 00    	imul   $0x113f,%eax,%eax
  4015e2:	89 44 24 1c          	mov    %eax,0x1c(%rsp)
  4015e6:	8b 04 24             	mov    (%rsp),%eax
  4015e9:	69 c0 ce 93 00 00    	imul   $0x93ce,%eax,%eax
  4015ef:	89 04 24             	mov    %eax,(%rsp)
  4015f2:	8b 04 24             	mov    (%rsp),%eax
  4015f5:	69 c0 a6 4f 00 00    	imul   $0x4fa6,%eax,%eax
  4015fb:	89 04 24             	mov    %eax,(%rsp)
  4015fe:	8b 44 24 10          	mov    0x10(%rsp),%eax
  401602:	69 c0 02 e2 00 00    	imul   $0xe202,%eax,%eax
  401608:	89 44 24 10          	mov    %eax,0x10(%rsp)
  40160c:	8b 44 24 04          	mov    0x4(%rsp),%eax
  401610:	69 c0 ac 7b 00 00    	imul   $0x7bac,%eax,%eax
  401616:	89 44 24 04          	mov    %eax,0x4(%rsp)
  40161a:	8b 44 24 14          	mov    0x14(%rsp),%eax
  40161e:	69 c0 21 41 00 00    	imul   $0x4121,%eax,%eax
  401624:	89 44 24 14          	mov    %eax,0x14(%rsp)
  401628:	8b 44 24 0c          	mov    0xc(%rsp),%eax
  40162c:	69 c0 bd c7 00 00    	imul   $0xc7bd,%eax,%eax
  401632:	89 44 24 0c          	mov    %eax,0xc(%rsp)
  401636:	8b 04 24             	mov    (%rsp),%eax
  401639:	69 c0 d3 ed 00 00    	imul   $0xedd3,%eax,%eax
  40163f:	89 04 24             	mov    %eax,(%rsp)
  401642:	8b 44 24 18          	mov    0x18(%rsp),%eax
  401646:	69 c0 e2 8c 00 00    	imul   $0x8ce2,%eax,%eax
  40164c:	89 44 24 18          	mov    %eax,0x18(%rsp)
  401650:	8b 44 24 10          	mov    0x10(%rsp),%eax
  401654:	69 c0 f1 a2 00 00    	imul   $0xa2f1,%eax,%eax
  40165a:	89 44 24 10          	mov    %eax,0x10(%rsp)
  40165e:	8b 44 24 18          	mov    0x18(%rsp),%eax
  401662:	69 c0 86 ca 00 00    	imul   $0xca86,%eax,%eax
  401668:	89 44 24 18          	mov    %eax,0x18(%rsp)
  40166c:	8b 44 24 08          	mov    0x8(%rsp),%eax
  401670:	69 c0 f3 7a 00 00    	imul   $0x7af3,%eax,%eax
  401676:	89 44 24 08          	mov    %eax,0x8(%rsp)
  40167a:	8b 44 24 14          	mov    0x14(%rsp),%eax
  40167e:	69 c0 ca b9 00 00    	imul   $0xb9ca,%eax,%eax
  401684:	89 44 24 14          	mov    %eax,0x14(%rsp)
  401688:	8b 44 24 0c          	mov    0xc(%rsp),%eax
  40168c:	69 c0 8a d9 00 00    	imul   $0xd98a,%eax,%eax
  401692:	89 44 24 0c          	mov    %eax,0xc(%rsp)
  401696:	8b 44 24 08          	mov    0x8(%rsp),%eax
  40169a:	69 c0 da 3c 00 00    	imul   $0x3cda,%eax,%eax
  4016a0:	89 44 24 08          	mov    %eax,0x8(%rsp)
  4016a4:	8b 04 24             	mov    (%rsp),%eax
  4016a7:	69 c0 75 7f 00 00    	imul   $0x7f75,%eax,%eax
  4016ad:	89 04 24             	mov    %eax,(%rsp)
  4016b0:	8b 44 24 1c          	mov    0x1c(%rsp),%eax
  4016b4:	69 c0 80 cb 00 00    	imul   $0xcb80,%eax,%eax
  4016ba:	89 44 24 1c          	mov    %eax,0x1c(%rsp)
  4016be:	8b 44 24 10          	mov    0x10(%rsp),%eax
  4016c2:	69 c0 50 33 00 00    	imul   $0x3350,%eax,%eax
  4016c8:	89 44 24 10          	mov    %eax,0x10(%rsp)
  4016cc:	8b 44 24 10          	mov    0x10(%rsp),%eax
  4016d0:	69 c0 e5 86 00 00    	imul   $0x86e5,%eax,%eax
  4016d6:	89 44 24 10          	mov    %eax,0x10(%rsp)
  4016da:	8b 44 24 14          	mov    0x14(%rsp),%eax
  4016de:	69 c0 de 14 00 00    	imul   $0x14de,%eax,%eax
  4016e4:	89 44 24 14          	mov    %eax,0x14(%rsp)
  4016e8:	8b 44 24 24          	mov    0x24(%rsp),%eax
  4016ec:	69 c0 69 e0 00 00    	imul   $0xe069,%eax,%eax
  4016f2:	89 44 24 24          	mov    %eax,0x24(%rsp)
  4016f6:	8b 44 24 10          	mov    0x10(%rsp),%eax
  4016fa:	69 c0 1b e5 00 00    	imul   $0xe51b,%eax,%eax
  401700:	89 44 24 10          	mov    %eax,0x10(%rsp)
  401704:	8b 44 24 08          	mov    0x8(%rsp),%eax
  401708:	69 c0 5a bf 00 00    	imul   $0xbf5a,%eax,%eax
  40170e:	89 44 24 08          	mov    %eax,0x8(%rsp)
  401712:	8b 44 24 20          	mov    0x20(%rsp),%eax
  401716:	69 c0 3d 9a 00 00    	imul   $0x9a3d,%eax,%eax
  40171c:	89 44 24 20          	mov    %eax,0x20(%rsp)
  401720:	8b 44 24 10          	mov    0x10(%rsp),%eax
  401724:	69 c0 ce ca 00 00    	imul   $0xcace,%eax,%eax
  40172a:	89 44 24 10          	mov    %eax,0x10(%rsp)
  40172e:	8b 04 24             	mov    (%rsp),%eax
  401731:	69 c0 d1 00 00 00    	imul   $0xd1,%eax,%eax
  401737:	89 04 24             	mov    %eax,(%rsp)
  40173a:	8b 44 24 08          	mov    0x8(%rsp),%eax
  40173e:	69 c0 34 29 00 00    	imul   $0x2934,%eax,%eax
  401744:	89 44 24 08          	mov    %eax,0x8(%rsp)
  401748:	8b 04 24             	mov    (%rsp),%eax
  40174b:	69 c0 10 98 00 00    	imul   $0x9810,%eax,%eax
  401751:	89 04 24             	mov    %eax,(%rsp)
  401754:	8b 44 24 0c          	mov    0xc(%rsp),%eax
  401758:	69 c0 28 91 00 00    	imul   $0x9128,%eax,%eax
  40175e:	89 44 24 0c          	mov    %eax,0xc(%rsp)
  401762:	8b 44 24 18          	mov    0x18(%rsp),%eax
  401766:	69 c0 bc 9e 00 00    	imul   $0x9ebc,%eax,%eax
  40176c:	89 44 24 18          	mov    %eax,0x18(%rsp)
  401770:	8b 44 24 0c          	mov    0xc(%rsp),%eax
  401774:	69 c0 5f b3 00 00    	imul   $0xb35f,%eax,%eax
  40177a:	89 44 24 0c          	mov    %eax,0xc(%rsp)
  40177e:	8b 44 24 1c          	mov    0x1c(%rsp),%eax
  401782:	69 c0 1c 1c 00 00    	imul   $0x1c1c,%eax,%eax
  401788:	89 44 24 1c          	mov    %eax,0x1c(%rsp)
  40178c:	8b 44 24 24          	mov    0x24(%rsp),%eax
  401790:	69 c0 75 31 00 00    	imul   $0x3175,%eax,%eax
  401796:	89 44 24 24          	mov    %eax,0x24(%rsp)
  40179a:	8b 44 24 08          	mov    0x8(%rsp),%eax
  40179e:	69 c0 05 9a 00 00    	imul   $0x9a05,%eax,%eax
  4017a4:	89 44 24 08          	mov    %eax,0x8(%rsp)
  4017a8:	8b 44 24 24          	mov    0x24(%rsp),%eax
  4017ac:	69 c0 bf 64 00 00    	imul   $0x64bf,%eax,%eax
  4017b2:	89 44 24 24          	mov    %eax,0x24(%rsp)
  4017b6:	8b 44 24 04          	mov    0x4(%rsp),%eax
  4017ba:	69 c0 ec ba 00 00    	imul   $0xbaec,%eax,%eax
  4017c0:	89 44 24 04          	mov    %eax,0x4(%rsp)
  4017c4:	8b 44 24 0c          	mov    0xc(%rsp),%eax
  4017c8:	69 c0 e3 04 00 00    	imul   $0x4e3,%eax,%eax
  4017ce:	89 44 24 0c          	mov    %eax,0xc(%rsp)
  4017d2:	8b 44 24 14          	mov    0x14(%rsp),%eax
  4017d6:	69 c0 4f ed 00 00    	imul   $0xed4f,%eax,%eax
  4017dc:	89 44 24 14          	mov    %eax,0x14(%rsp)
  4017e0:	8b 44 24 08          	mov    0x8(%rsp),%eax
  4017e4:	69 c0 f5 72 00 00    	imul   $0x72f5,%eax,%eax
  4017ea:	89 44 24 08          	mov    %eax,0x8(%rsp)
  4017ee:	8b 44 24 14          	mov    0x14(%rsp),%eax
  4017f2:	69 c0 7a 10 00 00    	imul   $0x107a,%eax,%eax
  4017f8:	89 44 24 14          	mov    %eax,0x14(%rsp)
  4017fc:	8b 44 24 04          	mov    0x4(%rsp),%eax
  401800:	69 c0 ba c4 00 00    	imul   $0xc4ba,%eax,%eax
  401806:	89 44 24 04          	mov    %eax,0x4(%rsp)
  40180a:	8b 44 24 20          	mov    0x20(%rsp),%eax
  40180e:	69 c0 17 d3 00 00    	imul   $0xd317,%eax,%eax
  401814:	89 44 24 20          	mov    %eax,0x20(%rsp)
  401818:	8b 44 24 04          	mov    0x4(%rsp),%eax
  40181c:	69 c0 0f 8d 00 00    	imul   $0x8d0f,%eax,%eax
  401822:	89 44 24 04          	mov    %eax,0x4(%rsp)
  401826:	8b 44 24 0c          	mov    0xc(%rsp),%eax
  40182a:	69 c0 ed d0 00 00    	imul   $0xd0ed,%eax,%eax
  401830:	89 44 24 0c          	mov    %eax,0xc(%rsp)
  401834:	8b 44 24 24          	mov    0x24(%rsp),%eax
  401838:	69 c0 c2 dc 00 00    	imul   $0xdcc2,%eax,%eax
  40183e:	89 44 24 24          	mov    %eax,0x24(%rsp)
  401842:	8b 44 24 08          	mov    0x8(%rsp),%eax
  401846:	69 c0 3a ec 00 00    	imul   $0xec3a,%eax,%eax
  40184c:	89 44 24 08          	mov    %eax,0x8(%rsp)
  401850:	8b 04 24             	mov    (%rsp),%eax
  401853:	69 c0 da 8d 00 00    	imul   $0x8dda,%eax,%eax
  401859:	89 04 24             	mov    %eax,(%rsp)
  40185c:	8b 44 24 1c          	mov    0x1c(%rsp),%eax
  401860:	69 c0 01 0f 00 00    	imul   $0xf01,%eax,%eax
  401866:	89 44 24 1c          	mov    %eax,0x1c(%rsp)
  40186a:	ba 00 00 00 00       	mov    $0x0,%edx
  40186f:	b8 00 00 00 00       	mov    $0x0,%eax
  401874:	eb 0a                	jmp    401880 <scramble+0x4f1>
  401876:	89 d1                	mov    %edx,%ecx
  401878:	8b 0c 8c             	mov    (%rsp,%rcx,4),%ecx
  40187b:	01 c8                	add    %ecx,%eax
  40187d:	83 c2 01             	add    $0x1,%edx
  401880:	83 fa 09             	cmp    $0x9,%edx
  401883:	76 f1                	jbe    401876 <scramble+0x4e7>
  401885:	48 8b 74 24 28       	mov    0x28(%rsp),%rsi
  40188a:	64 48 33 34 25 28 00 	xor    %fs:0x28,%rsi
  401891:	00 00 
  401893:	74 05                	je     40189a <scramble+0x50b>
  401895:	e8 56 f4 ff ff       	callq  400cf0 <__stack_chk_fail@plt>
  40189a:	48 83 c4 38          	add    $0x38,%rsp
  40189e:	c3                   	retq   

000000000040189f <getbuf>:
  40189f:	48 83 ec 28          	sub    $0x28,%rsp
  4018a3:	48 89 e7             	mov    %rsp,%rdi
  4018a6:	e8 7e 02 00 00       	callq  401b29 <Gets>
  4018ab:	b8 01 00 00 00       	mov    $0x1,%eax
  4018b0:	48 83 c4 28          	add    $0x28,%rsp
  4018b4:	c3                   	retq   

00000000004018b5 <touch1>:
  4018b5:	48 83 ec 08          	sub    $0x8,%rsp
  4018b9:	c7 05 59 3c 20 00 01 	movl   $0x1,0x203c59(%rip)        # 60551c <vlevel>
  4018c0:	00 00 00 
  4018c3:	bf 5f 33 40 00       	mov    $0x40335f,%edi
  4018c8:	e8 03 f4 ff ff       	callq  400cd0 <puts@plt>
  4018cd:	bf 01 00 00 00       	mov    $0x1,%edi
  4018d2:	e8 97 04 00 00       	callq  401d6e <validate>
  4018d7:	bf 00 00 00 00       	mov    $0x0,%edi
  4018dc:	e8 6f f5 ff ff       	callq  400e50 <exit@plt>

00000000004018e1 <touch2>:
  4018e1:	48 83 ec 08          	sub    $0x8,%rsp
  4018e5:	89 fa                	mov    %edi,%edx
  4018e7:	c7 05 2b 3c 20 00 02 	movl   $0x2,0x203c2b(%rip)        # 60551c <vlevel>
  4018ee:	00 00 00 
  4018f1:	39 3d 2d 3c 20 00    	cmp    %edi,0x203c2d(%rip)        # 605524 <cookie>
  4018f7:	75 20                	jne    401919 <touch2+0x38>
  4018f9:	be 88 33 40 00       	mov    $0x403388,%esi
  4018fe:	bf 01 00 00 00       	mov    $0x1,%edi
  401903:	b8 00 00 00 00       	mov    $0x0,%eax
  401908:	e8 f3 f4 ff ff       	callq  400e00 <__printf_chk@plt>
  40190d:	bf 02 00 00 00       	mov    $0x2,%edi
  401912:	e8 57 04 00 00       	callq  401d6e <validate>
  401917:	eb 1e                	jmp    401937 <touch2+0x56>
  401919:	be b0 33 40 00       	mov    $0x4033b0,%esi
  40191e:	bf 01 00 00 00       	mov    $0x1,%edi
  401923:	b8 00 00 00 00       	mov    $0x0,%eax
  401928:	e8 d3 f4 ff ff       	callq  400e00 <__printf_chk@plt>
  40192d:	bf 02 00 00 00       	mov    $0x2,%edi
  401932:	e8 f9 04 00 00       	callq  401e30 <fail>
  401937:	bf 00 00 00 00       	mov    $0x0,%edi
  40193c:	e8 0f f5 ff ff       	callq  400e50 <exit@plt>

0000000000401941 <hexmatch>:
  401941:	41 54                	push   %r12
  401943:	55                   	push   %rbp
  401944:	53                   	push   %rbx
  401945:	48 83 c4 80          	add    $0xffffffffffffff80,%rsp
  401949:	89 fd                	mov    %edi,%ebp
  40194b:	48 89 f3             	mov    %rsi,%rbx
  40194e:	64 48 8b 04 25 28 00 	mov    %fs:0x28,%rax
  401955:	00 00 
  401957:	48 89 44 24 78       	mov    %rax,0x78(%rsp)
  40195c:	31 c0                	xor    %eax,%eax
  40195e:	e8 5d f4 ff ff       	callq  400dc0 <random@plt>
  401963:	48 89 c1             	mov    %rax,%rcx
  401966:	48 ba 0b d7 a3 70 3d 	movabs $0xa3d70a3d70a3d70b,%rdx
  40196d:	0a d7 a3 
  401970:	48 f7 ea             	imul   %rdx
  401973:	48 01 ca             	add    %rcx,%rdx
  401976:	48 c1 fa 06          	sar    $0x6,%rdx
  40197a:	48 89 c8             	mov    %rcx,%rax
  40197d:	48 c1 f8 3f          	sar    $0x3f,%rax
  401981:	48 29 c2             	sub    %rax,%rdx
  401984:	48 8d 04 92          	lea    (%rdx,%rdx,4),%rax
  401988:	48 8d 14 80          	lea    (%rax,%rax,4),%rdx
  40198c:	48 8d 04 95 00 00 00 	lea    0x0(,%rdx,4),%rax
  401993:	00 
  401994:	48 29 c1             	sub    %rax,%rcx
  401997:	4c 8d 24 0c          	lea    (%rsp,%rcx,1),%r12
  40199b:	41 89 e8             	mov    %ebp,%r8d
  40199e:	b9 7c 33 40 00       	mov    $0x40337c,%ecx
  4019a3:	48 c7 c2 ff ff ff ff 	mov    $0xffffffffffffffff,%rdx
  4019aa:	be 01 00 00 00       	mov    $0x1,%esi
  4019af:	4c 89 e7             	mov    %r12,%rdi
  4019b2:	b8 00 00 00 00       	mov    $0x0,%eax
  4019b7:	e8 c4 f4 ff ff       	callq  400e80 <__sprintf_chk@plt>
  4019bc:	ba 09 00 00 00       	mov    $0x9,%edx
  4019c1:	4c 89 e6             	mov    %r12,%rsi
  4019c4:	48 89 df             	mov    %rbx,%rdi
  4019c7:	e8 e4 f2 ff ff       	callq  400cb0 <strncmp@plt>
  4019cc:	85 c0                	test   %eax,%eax
  4019ce:	0f 94 c0             	sete   %al
  4019d1:	48 8b 5c 24 78       	mov    0x78(%rsp),%rbx
  4019d6:	64 48 33 1c 25 28 00 	xor    %fs:0x28,%rbx
  4019dd:	00 00 
  4019df:	74 05                	je     4019e6 <hexmatch+0xa5>
  4019e1:	e8 0a f3 ff ff       	callq  400cf0 <__stack_chk_fail@plt>
  4019e6:	0f b6 c0             	movzbl %al,%eax
  4019e9:	48 83 ec 80          	sub    $0xffffffffffffff80,%rsp
  4019ed:	5b                   	pop    %rbx
  4019ee:	5d                   	pop    %rbp
  4019ef:	41 5c                	pop    %r12
  4019f1:	c3                   	retq   

00000000004019f2 <touch3>:
  4019f2:	53                   	push   %rbx
  4019f3:	48 89 fb             	mov    %rdi,%rbx
  4019f6:	c7 05 1c 3b 20 00 03 	movl   $0x3,0x203b1c(%rip)        # 60551c <vlevel>
  4019fd:	00 00 00 
  401a00:	48 89 fe             	mov    %rdi,%rsi
  401a03:	8b 3d 1b 3b 20 00    	mov    0x203b1b(%rip),%edi        # 605524 <cookie>
  401a09:	e8 33 ff ff ff       	callq  401941 <hexmatch>
  401a0e:	85 c0                	test   %eax,%eax
  401a10:	74 23                	je     401a35 <touch3+0x43>
  401a12:	48 89 da             	mov    %rbx,%rdx
  401a15:	be d8 33 40 00       	mov    $0x4033d8,%esi
  401a1a:	bf 01 00 00 00       	mov    $0x1,%edi
  401a1f:	b8 00 00 00 00       	mov    $0x0,%eax
  401a24:	e8 d7 f3 ff ff       	callq  400e00 <__printf_chk@plt>
  401a29:	bf 03 00 00 00       	mov    $0x3,%edi
  401a2e:	e8 3b 03 00 00       	callq  401d6e <validate>
  401a33:	eb 21                	jmp    401a56 <touch3+0x64>
  401a35:	48 89 da             	mov    %rbx,%rdx
  401a38:	be 00 34 40 00       	mov    $0x403400,%esi
  401a3d:	bf 01 00 00 00       	mov    $0x1,%edi
  401a42:	b8 00 00 00 00       	mov    $0x0,%eax
  401a47:	e8 b4 f3 ff ff       	callq  400e00 <__printf_chk@plt>
  401a4c:	bf 03 00 00 00       	mov    $0x3,%edi
  401a51:	e8 da 03 00 00       	callq  401e30 <fail>
  401a56:	bf 00 00 00 00       	mov    $0x0,%edi
  401a5b:	e8 f0 f3 ff ff       	callq  400e50 <exit@plt>

0000000000401a60 <test>:
  401a60:	48 83 ec 08          	sub    $0x8,%rsp
  401a64:	b8 00 00 00 00       	mov    $0x0,%eax
  401a69:	e8 31 fe ff ff       	callq  40189f <getbuf>
  401a6e:	89 c2                	mov    %eax,%edx
  401a70:	be 28 34 40 00       	mov    $0x403428,%esi
  401a75:	bf 01 00 00 00       	mov    $0x1,%edi
  401a7a:	b8 00 00 00 00       	mov    $0x0,%eax
  401a7f:	e8 7c f3 ff ff       	callq  400e00 <__printf_chk@plt>
  401a84:	48 83 c4 08          	add    $0x8,%rsp
  401a88:	c3                   	retq   

0000000000401a89 <save_char>:
  401a89:	8b 05 b5 46 20 00    	mov    0x2046b5(%rip),%eax        # 606144 <gets_cnt>
  401a8f:	3d ff 03 00 00       	cmp    $0x3ff,%eax
  401a94:	7f 49                	jg     401adf <save_char+0x56>
  401a96:	8d 14 40             	lea    (%rax,%rax,2),%edx
  401a99:	89 f9                	mov    %edi,%ecx
  401a9b:	c0 e9 04             	shr    $0x4,%cl
  401a9e:	83 e1 0f             	and    $0xf,%ecx
  401aa1:	0f b6 b1 50 37 40 00 	movzbl 0x403750(%rcx),%esi
  401aa8:	48 63 ca             	movslq %edx,%rcx
  401aab:	40 88 b1 40 55 60 00 	mov    %sil,0x605540(%rcx)
  401ab2:	8d 4a 01             	lea    0x1(%rdx),%ecx
  401ab5:	83 e7 0f             	and    $0xf,%edi
  401ab8:	0f b6 b7 50 37 40 00 	movzbl 0x403750(%rdi),%esi
  401abf:	48 63 c9             	movslq %ecx,%rcx
  401ac2:	40 88 b1 40 55 60 00 	mov    %sil,0x605540(%rcx)
  401ac9:	83 c2 02             	add    $0x2,%edx
  401acc:	48 63 d2             	movslq %edx,%rdx
  401acf:	c6 82 40 55 60 00 20 	movb   $0x20,0x605540(%rdx)
  401ad6:	83 c0 01             	add    $0x1,%eax
  401ad9:	89 05 65 46 20 00    	mov    %eax,0x204665(%rip)        # 606144 <gets_cnt>
  401adf:	f3 c3                	repz retq 

0000000000401ae1 <save_term>:
  401ae1:	8b 05 5d 46 20 00    	mov    0x20465d(%rip),%eax        # 606144 <gets_cnt>
  401ae7:	8d 04 40             	lea    (%rax,%rax,2),%eax
  401aea:	48 98                	cltq   
  401aec:	c6 80 40 55 60 00 00 	movb   $0x0,0x605540(%rax)
  401af3:	c3                   	retq   

0000000000401af4 <check_fail>:
  401af4:	48 83 ec 08          	sub    $0x8,%rsp
  401af8:	0f be 15 49 46 20 00 	movsbl 0x204649(%rip),%edx        # 606148 <target_prefix>
  401aff:	41 b8 40 55 60 00    	mov    $0x605540,%r8d
  401b05:	8b 0d 0d 3a 20 00    	mov    0x203a0d(%rip),%ecx        # 605518 <check_level>
  401b0b:	be 4b 34 40 00       	mov    $0x40344b,%esi
  401b10:	bf 01 00 00 00       	mov    $0x1,%edi
  401b15:	b8 00 00 00 00       	mov    $0x0,%eax
  401b1a:	e8 e1 f2 ff ff       	callq  400e00 <__printf_chk@plt>
  401b1f:	bf 01 00 00 00       	mov    $0x1,%edi
  401b24:	e8 27 f3 ff ff       	callq  400e50 <exit@plt>

0000000000401b29 <Gets>:
  401b29:	41 54                	push   %r12
  401b2b:	55                   	push   %rbp
  401b2c:	53                   	push   %rbx
  401b2d:	49 89 fc             	mov    %rdi,%r12
  401b30:	c7 05 0a 46 20 00 00 	movl   $0x0,0x20460a(%rip)        # 606144 <gets_cnt>
  401b37:	00 00 00 
  401b3a:	48 89 fb             	mov    %rdi,%rbx
  401b3d:	eb 11                	jmp    401b50 <Gets+0x27>
  401b3f:	48 8d 6b 01          	lea    0x1(%rbx),%rbp
  401b43:	88 03                	mov    %al,(%rbx)
  401b45:	0f b6 f8             	movzbl %al,%edi
  401b48:	e8 3c ff ff ff       	callq  401a89 <save_char>
  401b4d:	48 89 eb             	mov    %rbp,%rbx
  401b50:	48 8b 3d b9 39 20 00 	mov    0x2039b9(%rip),%rdi        # 605510 <infile>
  401b57:	e8 74 f2 ff ff       	callq  400dd0 <_IO_getc@plt>
  401b5c:	83 f8 ff             	cmp    $0xffffffff,%eax
  401b5f:	74 05                	je     401b66 <Gets+0x3d>
  401b61:	83 f8 0a             	cmp    $0xa,%eax
  401b64:	75 d9                	jne    401b3f <Gets+0x16>
  401b66:	c6 03 00             	movb   $0x0,(%rbx)
  401b69:	b8 00 00 00 00       	mov    $0x0,%eax
  401b6e:	e8 6e ff ff ff       	callq  401ae1 <save_term>
  401b73:	4c 89 e0             	mov    %r12,%rax
  401b76:	5b                   	pop    %rbx
  401b77:	5d                   	pop    %rbp
  401b78:	41 5c                	pop    %r12
  401b7a:	c3                   	retq   

0000000000401b7b <notify_server>:
  401b7b:	53                   	push   %rbx
  401b7c:	48 81 ec 10 40 00 00 	sub    $0x4010,%rsp
  401b83:	64 48 8b 04 25 28 00 	mov    %fs:0x28,%rax
  401b8a:	00 00 
  401b8c:	48 89 84 24 08 40 00 	mov    %rax,0x4008(%rsp)
  401b93:	00 
  401b94:	31 c0                	xor    %eax,%eax
  401b96:	83 3d 8b 39 20 00 00 	cmpl   $0x0,0x20398b(%rip)        # 605528 <is_checker>
  401b9d:	0f 85 aa 01 00 00    	jne    401d4d <notify_server+0x1d2>
  401ba3:	89 fb                	mov    %edi,%ebx
  401ba5:	8b 05 99 45 20 00    	mov    0x204599(%rip),%eax        # 606144 <gets_cnt>
  401bab:	83 c0 64             	add    $0x64,%eax
  401bae:	3d 00 20 00 00       	cmp    $0x2000,%eax
  401bb3:	7e 1e                	jle    401bd3 <notify_server+0x58>
  401bb5:	be 80 35 40 00       	mov    $0x403580,%esi
  401bba:	bf 01 00 00 00       	mov    $0x1,%edi
  401bbf:	b8 00 00 00 00       	mov    $0x0,%eax
  401bc4:	e8 37 f2 ff ff       	callq  400e00 <__printf_chk@plt>
  401bc9:	bf 01 00 00 00       	mov    $0x1,%edi
  401bce:	e8 7d f2 ff ff       	callq  400e50 <exit@plt>
  401bd3:	0f be 05 6e 45 20 00 	movsbl 0x20456e(%rip),%eax        # 606148 <target_prefix>
  401bda:	83 3d c7 38 20 00 00 	cmpl   $0x0,0x2038c7(%rip)        # 6054a8 <notify>
  401be1:	74 08                	je     401beb <notify_server+0x70>
  401be3:	8b 15 37 39 20 00    	mov    0x203937(%rip),%edx        # 605520 <authkey>
  401be9:	eb 05                	jmp    401bf0 <notify_server+0x75>
  401beb:	ba ff ff ff ff       	mov    $0xffffffff,%edx
  401bf0:	85 db                	test   %ebx,%ebx
  401bf2:	74 08                	je     401bfc <notify_server+0x81>
  401bf4:	41 b9 61 34 40 00    	mov    $0x403461,%r9d
  401bfa:	eb 06                	jmp    401c02 <notify_server+0x87>
  401bfc:	41 b9 66 34 40 00    	mov    $0x403466,%r9d
  401c02:	68 40 55 60 00       	pushq  $0x605540
  401c07:	56                   	push   %rsi
  401c08:	50                   	push   %rax
  401c09:	52                   	push   %rdx
  401c0a:	44 8b 05 57 35 20 00 	mov    0x203557(%rip),%r8d        # 605168 <target_id>
  401c11:	b9 6b 34 40 00       	mov    $0x40346b,%ecx
  401c16:	ba 00 20 00 00       	mov    $0x2000,%edx
  401c1b:	be 01 00 00 00       	mov    $0x1,%esi
  401c20:	48 8d 7c 24 20       	lea    0x20(%rsp),%rdi
  401c25:	b8 00 00 00 00       	mov    $0x0,%eax
  401c2a:	e8 51 f2 ff ff       	callq  400e80 <__sprintf_chk@plt>
  401c2f:	48 83 c4 20          	add    $0x20,%rsp
  401c33:	83 3d 6e 38 20 00 00 	cmpl   $0x0,0x20386e(%rip)        # 6054a8 <notify>
  401c3a:	0f 84 81 00 00 00    	je     401cc1 <notify_server+0x146>
  401c40:	85 db                	test   %ebx,%ebx
  401c42:	74 6e                	je     401cb2 <notify_server+0x137>
  401c44:	4c 8d 8c 24 00 20 00 	lea    0x2000(%rsp),%r9
  401c4b:	00 
  401c4c:	41 b8 00 00 00 00    	mov    $0x0,%r8d
  401c52:	48 89 e1             	mov    %rsp,%rcx
  401c55:	48 8b 15 14 35 20 00 	mov    0x203514(%rip),%rdx        # 605170 <lab>
  401c5c:	48 8b 35 15 35 20 00 	mov    0x203515(%rip),%rsi        # 605178 <course>
  401c63:	48 8b 3d f6 34 20 00 	mov    0x2034f6(%rip),%rdi        # 605160 <user_id>
  401c6a:	e8 ef 10 00 00       	callq  402d5e <driver_post>
  401c6f:	85 c0                	test   %eax,%eax
  401c71:	79 26                	jns    401c99 <notify_server+0x11e>
  401c73:	48 8d 94 24 00 20 00 	lea    0x2000(%rsp),%rdx
  401c7a:	00 
  401c7b:	be 87 34 40 00       	mov    $0x403487,%esi
  401c80:	bf 01 00 00 00       	mov    $0x1,%edi
  401c85:	b8 00 00 00 00       	mov    $0x0,%eax
  401c8a:	e8 71 f1 ff ff       	callq  400e00 <__printf_chk@plt>
  401c8f:	bf 01 00 00 00       	mov    $0x1,%edi
  401c94:	e8 b7 f1 ff ff       	callq  400e50 <exit@plt>
  401c99:	bf b0 35 40 00       	mov    $0x4035b0,%edi
  401c9e:	e8 2d f0 ff ff       	callq  400cd0 <puts@plt>
  401ca3:	bf 93 34 40 00       	mov    $0x403493,%edi
  401ca8:	e8 23 f0 ff ff       	callq  400cd0 <puts@plt>
  401cad:	e9 9b 00 00 00       	jmpq   401d4d <notify_server+0x1d2>
  401cb2:	bf 9d 34 40 00       	mov    $0x40349d,%edi
  401cb7:	e8 14 f0 ff ff       	callq  400cd0 <puts@plt>
  401cbc:	e9 8c 00 00 00       	jmpq   401d4d <notify_server+0x1d2>
  401cc1:	85 db                	test   %ebx,%ebx
  401cc3:	74 07                	je     401ccc <notify_server+0x151>
  401cc5:	ba 61 34 40 00       	mov    $0x403461,%edx
  401cca:	eb 05                	jmp    401cd1 <notify_server+0x156>
  401ccc:	ba 66 34 40 00       	mov    $0x403466,%edx
  401cd1:	be e8 35 40 00       	mov    $0x4035e8,%esi
  401cd6:	bf 01 00 00 00       	mov    $0x1,%edi
  401cdb:	b8 00 00 00 00       	mov    $0x0,%eax
  401ce0:	e8 1b f1 ff ff       	callq  400e00 <__printf_chk@plt>
  401ce5:	48 8b 15 74 34 20 00 	mov    0x203474(%rip),%rdx        # 605160 <user_id>
  401cec:	be a4 34 40 00       	mov    $0x4034a4,%esi
  401cf1:	bf 01 00 00 00       	mov    $0x1,%edi
  401cf6:	b8 00 00 00 00       	mov    $0x0,%eax
  401cfb:	e8 00 f1 ff ff       	callq  400e00 <__printf_chk@plt>
  401d00:	48 8b 15 71 34 20 00 	mov    0x203471(%rip),%rdx        # 605178 <course>
  401d07:	be b1 34 40 00       	mov    $0x4034b1,%esi
  401d0c:	bf 01 00 00 00       	mov    $0x1,%edi
  401d11:	b8 00 00 00 00       	mov    $0x0,%eax
  401d16:	e8 e5 f0 ff ff       	callq  400e00 <__printf_chk@plt>
  401d1b:	48 8b 15 4e 34 20 00 	mov    0x20344e(%rip),%rdx        # 605170 <lab>
  401d22:	be bd 34 40 00       	mov    $0x4034bd,%esi
  401d27:	bf 01 00 00 00       	mov    $0x1,%edi
  401d2c:	b8 00 00 00 00       	mov    $0x0,%eax
  401d31:	e8 ca f0 ff ff       	callq  400e00 <__printf_chk@plt>
  401d36:	48 89 e2             	mov    %rsp,%rdx
  401d39:	be c6 34 40 00       	mov    $0x4034c6,%esi
  401d3e:	bf 01 00 00 00       	mov    $0x1,%edi
  401d43:	b8 00 00 00 00       	mov    $0x0,%eax
  401d48:	e8 b3 f0 ff ff       	callq  400e00 <__printf_chk@plt>
  401d4d:	48 8b 84 24 08 40 00 	mov    0x4008(%rsp),%rax
  401d54:	00 
  401d55:	64 48 33 04 25 28 00 	xor    %fs:0x28,%rax
  401d5c:	00 00 
  401d5e:	74 05                	je     401d65 <notify_server+0x1ea>
  401d60:	e8 8b ef ff ff       	callq  400cf0 <__stack_chk_fail@plt>
  401d65:	48 81 c4 10 40 00 00 	add    $0x4010,%rsp
  401d6c:	5b                   	pop    %rbx
  401d6d:	c3                   	retq   

0000000000401d6e <validate>:
  401d6e:	53                   	push   %rbx
  401d6f:	89 fb                	mov    %edi,%ebx
  401d71:	83 3d b0 37 20 00 00 	cmpl   $0x0,0x2037b0(%rip)        # 605528 <is_checker>
  401d78:	74 6b                	je     401de5 <validate+0x77>
  401d7a:	39 3d 9c 37 20 00    	cmp    %edi,0x20379c(%rip)        # 60551c <vlevel>
  401d80:	74 14                	je     401d96 <validate+0x28>
  401d82:	bf d2 34 40 00       	mov    $0x4034d2,%edi
  401d87:	e8 44 ef ff ff       	callq  400cd0 <puts@plt>
  401d8c:	b8 00 00 00 00       	mov    $0x0,%eax
  401d91:	e8 5e fd ff ff       	callq  401af4 <check_fail>
  401d96:	8b 15 7c 37 20 00    	mov    0x20377c(%rip),%edx        # 605518 <check_level>
  401d9c:	39 d7                	cmp    %edx,%edi
  401d9e:	74 20                	je     401dc0 <validate+0x52>
  401da0:	89 f9                	mov    %edi,%ecx
  401da2:	be 10 36 40 00       	mov    $0x403610,%esi
  401da7:	bf 01 00 00 00       	mov    $0x1,%edi
  401dac:	b8 00 00 00 00       	mov    $0x0,%eax
  401db1:	e8 4a f0 ff ff       	callq  400e00 <__printf_chk@plt>
  401db6:	b8 00 00 00 00       	mov    $0x0,%eax
  401dbb:	e8 34 fd ff ff       	callq  401af4 <check_fail>
  401dc0:	0f be 15 81 43 20 00 	movsbl 0x204381(%rip),%edx        # 606148 <target_prefix>
  401dc7:	41 b8 40 55 60 00    	mov    $0x605540,%r8d
  401dcd:	89 f9                	mov    %edi,%ecx
  401dcf:	be f0 34 40 00       	mov    $0x4034f0,%esi
  401dd4:	bf 01 00 00 00       	mov    $0x1,%edi
  401dd9:	b8 00 00 00 00       	mov    $0x0,%eax
  401dde:	e8 1d f0 ff ff       	callq  400e00 <__printf_chk@plt>
  401de3:	eb 49                	jmp    401e2e <validate+0xc0>
  401de5:	3b 3d 31 37 20 00    	cmp    0x203731(%rip),%edi        # 60551c <vlevel>
  401deb:	74 18                	je     401e05 <validate+0x97>
  401ded:	bf d2 34 40 00       	mov    $0x4034d2,%edi
  401df2:	e8 d9 ee ff ff       	callq  400cd0 <puts@plt>
  401df7:	89 de                	mov    %ebx,%esi
  401df9:	bf 00 00 00 00       	mov    $0x0,%edi
  401dfe:	e8 78 fd ff ff       	callq  401b7b <notify_server>
  401e03:	eb 29                	jmp    401e2e <validate+0xc0>
  401e05:	0f be 0d 3c 43 20 00 	movsbl 0x20433c(%rip),%ecx        # 606148 <target_prefix>
  401e0c:	89 fa                	mov    %edi,%edx
  401e0e:	be 38 36 40 00       	mov    $0x403638,%esi
  401e13:	bf 01 00 00 00       	mov    $0x1,%edi
  401e18:	b8 00 00 00 00       	mov    $0x0,%eax
  401e1d:	e8 de ef ff ff       	callq  400e00 <__printf_chk@plt>
  401e22:	89 de                	mov    %ebx,%esi
  401e24:	bf 01 00 00 00       	mov    $0x1,%edi
  401e29:	e8 4d fd ff ff       	callq  401b7b <notify_server>
  401e2e:	5b                   	pop    %rbx
  401e2f:	c3                   	retq   

0000000000401e30 <fail>:
  401e30:	48 83 ec 08          	sub    $0x8,%rsp
  401e34:	83 3d ed 36 20 00 00 	cmpl   $0x0,0x2036ed(%rip)        # 605528 <is_checker>
  401e3b:	74 0a                	je     401e47 <fail+0x17>
  401e3d:	b8 00 00 00 00       	mov    $0x0,%eax
  401e42:	e8 ad fc ff ff       	callq  401af4 <check_fail>
  401e47:	89 fe                	mov    %edi,%esi
  401e49:	bf 00 00 00 00       	mov    $0x0,%edi
  401e4e:	e8 28 fd ff ff       	callq  401b7b <notify_server>
  401e53:	48 83 c4 08          	add    $0x8,%rsp
  401e57:	c3                   	retq   

0000000000401e58 <bushandler>:
  401e58:	48 83 ec 08          	sub    $0x8,%rsp
  401e5c:	83 3d c5 36 20 00 00 	cmpl   $0x0,0x2036c5(%rip)        # 605528 <is_checker>
  401e63:	74 14                	je     401e79 <bushandler+0x21>
  401e65:	bf 05 35 40 00       	mov    $0x403505,%edi
  401e6a:	e8 61 ee ff ff       	callq  400cd0 <puts@plt>
  401e6f:	b8 00 00 00 00       	mov    $0x0,%eax
  401e74:	e8 7b fc ff ff       	callq  401af4 <check_fail>
  401e79:	bf 70 36 40 00       	mov    $0x403670,%edi
  401e7e:	e8 4d ee ff ff       	callq  400cd0 <puts@plt>
  401e83:	bf 0f 35 40 00       	mov    $0x40350f,%edi
  401e88:	e8 43 ee ff ff       	callq  400cd0 <puts@plt>
  401e8d:	be 00 00 00 00       	mov    $0x0,%esi
  401e92:	bf 00 00 00 00       	mov    $0x0,%edi
  401e97:	e8 df fc ff ff       	callq  401b7b <notify_server>
  401e9c:	bf 01 00 00 00       	mov    $0x1,%edi
  401ea1:	e8 aa ef ff ff       	callq  400e50 <exit@plt>

0000000000401ea6 <seghandler>:
  401ea6:	48 83 ec 08          	sub    $0x8,%rsp
  401eaa:	83 3d 77 36 20 00 00 	cmpl   $0x0,0x203677(%rip)        # 605528 <is_checker>
  401eb1:	74 14                	je     401ec7 <seghandler+0x21>
  401eb3:	bf 25 35 40 00       	mov    $0x403525,%edi
  401eb8:	e8 13 ee ff ff       	callq  400cd0 <puts@plt>
  401ebd:	b8 00 00 00 00       	mov    $0x0,%eax
  401ec2:	e8 2d fc ff ff       	callq  401af4 <check_fail>
  401ec7:	bf 90 36 40 00       	mov    $0x403690,%edi
  401ecc:	e8 ff ed ff ff       	callq  400cd0 <puts@plt>
  401ed1:	bf 0f 35 40 00       	mov    $0x40350f,%edi
  401ed6:	e8 f5 ed ff ff       	callq  400cd0 <puts@plt>
  401edb:	be 00 00 00 00       	mov    $0x0,%esi
  401ee0:	bf 00 00 00 00       	mov    $0x0,%edi
  401ee5:	e8 91 fc ff ff       	callq  401b7b <notify_server>
  401eea:	bf 01 00 00 00       	mov    $0x1,%edi
  401eef:	e8 5c ef ff ff       	callq  400e50 <exit@plt>

0000000000401ef4 <illegalhandler>:
  401ef4:	48 83 ec 08          	sub    $0x8,%rsp
  401ef8:	83 3d 29 36 20 00 00 	cmpl   $0x0,0x203629(%rip)        # 605528 <is_checker>
  401eff:	74 14                	je     401f15 <illegalhandler+0x21>
  401f01:	bf 38 35 40 00       	mov    $0x403538,%edi
  401f06:	e8 c5 ed ff ff       	callq  400cd0 <puts@plt>
  401f0b:	b8 00 00 00 00       	mov    $0x0,%eax
  401f10:	e8 df fb ff ff       	callq  401af4 <check_fail>
  401f15:	bf b8 36 40 00       	mov    $0x4036b8,%edi
  401f1a:	e8 b1 ed ff ff       	callq  400cd0 <puts@plt>
  401f1f:	bf 0f 35 40 00       	mov    $0x40350f,%edi
  401f24:	e8 a7 ed ff ff       	callq  400cd0 <puts@plt>
  401f29:	be 00 00 00 00       	mov    $0x0,%esi
  401f2e:	bf 00 00 00 00       	mov    $0x0,%edi
  401f33:	e8 43 fc ff ff       	callq  401b7b <notify_server>
  401f38:	bf 01 00 00 00       	mov    $0x1,%edi
  401f3d:	e8 0e ef ff ff       	callq  400e50 <exit@plt>

0000000000401f42 <sigalrmhandler>:
  401f42:	48 83 ec 08          	sub    $0x8,%rsp
  401f46:	83 3d db 35 20 00 00 	cmpl   $0x0,0x2035db(%rip)        # 605528 <is_checker>
  401f4d:	74 14                	je     401f63 <sigalrmhandler+0x21>
  401f4f:	bf 4c 35 40 00       	mov    $0x40354c,%edi
  401f54:	e8 77 ed ff ff       	callq  400cd0 <puts@plt>
  401f59:	b8 00 00 00 00       	mov    $0x0,%eax
  401f5e:	e8 91 fb ff ff       	callq  401af4 <check_fail>
  401f63:	ba 05 00 00 00       	mov    $0x5,%edx
  401f68:	be e8 36 40 00       	mov    $0x4036e8,%esi
  401f6d:	bf 01 00 00 00       	mov    $0x1,%edi
  401f72:	b8 00 00 00 00       	mov    $0x0,%eax
  401f77:	e8 84 ee ff ff       	callq  400e00 <__printf_chk@plt>
  401f7c:	be 00 00 00 00       	mov    $0x0,%esi
  401f81:	bf 00 00 00 00       	mov    $0x0,%edi
  401f86:	e8 f0 fb ff ff       	callq  401b7b <notify_server>
  401f8b:	bf 01 00 00 00       	mov    $0x1,%edi
  401f90:	e8 bb ee ff ff       	callq  400e50 <exit@plt>

0000000000401f95 <launch>:
  401f95:	55                   	push   %rbp
  401f96:	48 89 e5             	mov    %rsp,%rbp
  401f99:	48 83 ec 10          	sub    $0x10,%rsp
  401f9d:	48 89 fa             	mov    %rdi,%rdx
  401fa0:	64 48 8b 04 25 28 00 	mov    %fs:0x28,%rax
  401fa7:	00 00 
  401fa9:	48 89 45 f8          	mov    %rax,-0x8(%rbp)
  401fad:	31 c0                	xor    %eax,%eax
  401faf:	48 8d 47 1e          	lea    0x1e(%rdi),%rax
  401fb3:	48 83 e0 f0          	and    $0xfffffffffffffff0,%rax
  401fb7:	48 29 c4             	sub    %rax,%rsp
  401fba:	48 8d 7c 24 0f       	lea    0xf(%rsp),%rdi
  401fbf:	48 83 e7 f0          	and    $0xfffffffffffffff0,%rdi
  401fc3:	be f4 00 00 00       	mov    $0xf4,%esi
  401fc8:	e8 43 ed ff ff       	callq  400d10 <memset@plt>
  401fcd:	48 8b 05 ec 34 20 00 	mov    0x2034ec(%rip),%rax        # 6054c0 <stdin@@GLIBC_2.2.5>
  401fd4:	48 39 05 35 35 20 00 	cmp    %rax,0x203535(%rip)        # 605510 <infile>
  401fdb:	75 14                	jne    401ff1 <launch+0x5c>
  401fdd:	be 54 35 40 00       	mov    $0x403554,%esi
  401fe2:	bf 01 00 00 00       	mov    $0x1,%edi
  401fe7:	b8 00 00 00 00       	mov    $0x0,%eax
  401fec:	e8 0f ee ff ff       	callq  400e00 <__printf_chk@plt>
  401ff1:	c7 05 21 35 20 00 00 	movl   $0x0,0x203521(%rip)        # 60551c <vlevel>
  401ff8:	00 00 00 
  401ffb:	b8 00 00 00 00       	mov    $0x0,%eax
  402000:	e8 5b fa ff ff       	callq  401a60 <test>
  402005:	83 3d 1c 35 20 00 00 	cmpl   $0x0,0x20351c(%rip)        # 605528 <is_checker>
  40200c:	74 14                	je     402022 <launch+0x8d>
  40200e:	bf 61 35 40 00       	mov    $0x403561,%edi
  402013:	e8 b8 ec ff ff       	callq  400cd0 <puts@plt>
  402018:	b8 00 00 00 00       	mov    $0x0,%eax
  40201d:	e8 d2 fa ff ff       	callq  401af4 <check_fail>
  402022:	bf 6c 35 40 00       	mov    $0x40356c,%edi
  402027:	e8 a4 ec ff ff       	callq  400cd0 <puts@plt>
  40202c:	48 8b 45 f8          	mov    -0x8(%rbp),%rax
  402030:	64 48 33 04 25 28 00 	xor    %fs:0x28,%rax
  402037:	00 00 
  402039:	74 05                	je     402040 <launch+0xab>
  40203b:	e8 b0 ec ff ff       	callq  400cf0 <__stack_chk_fail@plt>
  402040:	c9                   	leaveq 
  402041:	c3                   	retq   

0000000000402042 <stable_launch>:
  402042:	53                   	push   %rbx
  402043:	48 89 3d be 34 20 00 	mov    %rdi,0x2034be(%rip)        # 605508 <global_offset>
  40204a:	41 b9 00 00 00 00    	mov    $0x0,%r9d
  402050:	41 b8 00 00 00 00    	mov    $0x0,%r8d
  402056:	b9 32 01 00 00       	mov    $0x132,%ecx
  40205b:	ba 07 00 00 00       	mov    $0x7,%edx
  402060:	be 00 00 10 00       	mov    $0x100000,%esi
  402065:	bf 00 60 58 55       	mov    $0x55586000,%edi
  40206a:	e8 91 ec ff ff       	callq  400d00 <mmap@plt>
  40206f:	48 89 c3             	mov    %rax,%rbx
  402072:	48 3d 00 60 58 55    	cmp    $0x55586000,%rax
  402078:	74 37                	je     4020b1 <stable_launch+0x6f>
  40207a:	be 00 00 10 00       	mov    $0x100000,%esi
  40207f:	48 89 c7             	mov    %rax,%rdi
  402082:	e8 69 ed ff ff       	callq  400df0 <munmap@plt>
  402087:	b9 00 60 58 55       	mov    $0x55586000,%ecx
  40208c:	ba 20 37 40 00       	mov    $0x403720,%edx
  402091:	be 01 00 00 00       	mov    $0x1,%esi
  402096:	48 8b 3d 43 34 20 00 	mov    0x203443(%rip),%rdi        # 6054e0 <stderr@@GLIBC_2.2.5>
  40209d:	b8 00 00 00 00       	mov    $0x0,%eax
  4020a2:	e8 c9 ed ff ff       	callq  400e70 <__fprintf_chk@plt>
  4020a7:	bf 01 00 00 00       	mov    $0x1,%edi
  4020ac:	e8 9f ed ff ff       	callq  400e50 <exit@plt>
  4020b1:	48 8d 90 f8 ff 0f 00 	lea    0xffff8(%rax),%rdx
  4020b8:	48 89 15 91 40 20 00 	mov    %rdx,0x204091(%rip)        # 606150 <stack_top>
  4020bf:	48 89 e0             	mov    %rsp,%rax
  4020c2:	48 89 d4             	mov    %rdx,%rsp
  4020c5:	48 89 c2             	mov    %rax,%rdx
  4020c8:	48 89 15 31 34 20 00 	mov    %rdx,0x203431(%rip)        # 605500 <global_save_stack>
  4020cf:	48 8b 3d 32 34 20 00 	mov    0x203432(%rip),%rdi        # 605508 <global_offset>
  4020d6:	e8 ba fe ff ff       	callq  401f95 <launch>
  4020db:	48 8b 05 1e 34 20 00 	mov    0x20341e(%rip),%rax        # 605500 <global_save_stack>
  4020e2:	48 89 c4             	mov    %rax,%rsp
  4020e5:	be 00 00 10 00       	mov    $0x100000,%esi
  4020ea:	48 89 df             	mov    %rbx,%rdi
  4020ed:	e8 fe ec ff ff       	callq  400df0 <munmap@plt>
  4020f2:	5b                   	pop    %rbx
  4020f3:	c3                   	retq   

00000000004020f4 <rio_readinitb>:
  4020f4:	89 37                	mov    %esi,(%rdi)
  4020f6:	c7 47 04 00 00 00 00 	movl   $0x0,0x4(%rdi)
  4020fd:	48 8d 47 10          	lea    0x10(%rdi),%rax
  402101:	48 89 47 08          	mov    %rax,0x8(%rdi)
  402105:	c3                   	retq   

0000000000402106 <sigalrm_handler>:
  402106:	48 83 ec 08          	sub    $0x8,%rsp
  40210a:	b9 00 00 00 00       	mov    $0x0,%ecx
  40210f:	ba 60 37 40 00       	mov    $0x403760,%edx
  402114:	be 01 00 00 00       	mov    $0x1,%esi
  402119:	48 8b 3d c0 33 20 00 	mov    0x2033c0(%rip),%rdi        # 6054e0 <stderr@@GLIBC_2.2.5>
  402120:	b8 00 00 00 00       	mov    $0x0,%eax
  402125:	e8 46 ed ff ff       	callq  400e70 <__fprintf_chk@plt>
  40212a:	bf 01 00 00 00       	mov    $0x1,%edi
  40212f:	e8 1c ed ff ff       	callq  400e50 <exit@plt>

0000000000402134 <rio_writen>:
  402134:	41 55                	push   %r13
  402136:	41 54                	push   %r12
  402138:	55                   	push   %rbp
  402139:	53                   	push   %rbx
  40213a:	48 83 ec 08          	sub    $0x8,%rsp
  40213e:	41 89 fc             	mov    %edi,%r12d
  402141:	48 89 f5             	mov    %rsi,%rbp
  402144:	49 89 d5             	mov    %rdx,%r13
  402147:	48 89 d3             	mov    %rdx,%rbx
  40214a:	eb 28                	jmp    402174 <rio_writen+0x40>
  40214c:	48 89 da             	mov    %rbx,%rdx
  40214f:	48 89 ee             	mov    %rbp,%rsi
  402152:	44 89 e7             	mov    %r12d,%edi
  402155:	e8 86 eb ff ff       	callq  400ce0 <write@plt>
  40215a:	48 85 c0             	test   %rax,%rax
  40215d:	7f 0f                	jg     40216e <rio_writen+0x3a>
  40215f:	e8 2c eb ff ff       	callq  400c90 <__errno_location@plt>
  402164:	83 38 04             	cmpl   $0x4,(%rax)
  402167:	75 15                	jne    40217e <rio_writen+0x4a>
  402169:	b8 00 00 00 00       	mov    $0x0,%eax
  40216e:	48 29 c3             	sub    %rax,%rbx
  402171:	48 01 c5             	add    %rax,%rbp
  402174:	48 85 db             	test   %rbx,%rbx
  402177:	75 d3                	jne    40214c <rio_writen+0x18>
  402179:	4c 89 e8             	mov    %r13,%rax
  40217c:	eb 07                	jmp    402185 <rio_writen+0x51>
  40217e:	48 c7 c0 ff ff ff ff 	mov    $0xffffffffffffffff,%rax
  402185:	48 83 c4 08          	add    $0x8,%rsp
  402189:	5b                   	pop    %rbx
  40218a:	5d                   	pop    %rbp
  40218b:	41 5c                	pop    %r12
  40218d:	41 5d                	pop    %r13
  40218f:	c3                   	retq   

0000000000402190 <rio_read>:
  402190:	41 55                	push   %r13
  402192:	41 54                	push   %r12
  402194:	55                   	push   %rbp
  402195:	53                   	push   %rbx
  402196:	48 83 ec 08          	sub    $0x8,%rsp
  40219a:	48 89 fb             	mov    %rdi,%rbx
  40219d:	49 89 f5             	mov    %rsi,%r13
  4021a0:	49 89 d4             	mov    %rdx,%r12
  4021a3:	eb 2e                	jmp    4021d3 <rio_read+0x43>
  4021a5:	48 8d 6b 10          	lea    0x10(%rbx),%rbp
  4021a9:	8b 3b                	mov    (%rbx),%edi
  4021ab:	ba 00 20 00 00       	mov    $0x2000,%edx
  4021b0:	48 89 ee             	mov    %rbp,%rsi
  4021b3:	e8 88 eb ff ff       	callq  400d40 <read@plt>
  4021b8:	89 43 04             	mov    %eax,0x4(%rbx)
  4021bb:	85 c0                	test   %eax,%eax
  4021bd:	79 0c                	jns    4021cb <rio_read+0x3b>
  4021bf:	e8 cc ea ff ff       	callq  400c90 <__errno_location@plt>
  4021c4:	83 38 04             	cmpl   $0x4,(%rax)
  4021c7:	74 0a                	je     4021d3 <rio_read+0x43>
  4021c9:	eb 37                	jmp    402202 <rio_read+0x72>
  4021cb:	85 c0                	test   %eax,%eax
  4021cd:	74 3c                	je     40220b <rio_read+0x7b>
  4021cf:	48 89 6b 08          	mov    %rbp,0x8(%rbx)
  4021d3:	8b 6b 04             	mov    0x4(%rbx),%ebp
  4021d6:	85 ed                	test   %ebp,%ebp
  4021d8:	7e cb                	jle    4021a5 <rio_read+0x15>
  4021da:	89 e8                	mov    %ebp,%eax
  4021dc:	49 39 c4             	cmp    %rax,%r12
  4021df:	77 03                	ja     4021e4 <rio_read+0x54>
  4021e1:	44 89 e5             	mov    %r12d,%ebp
  4021e4:	4c 63 e5             	movslq %ebp,%r12
  4021e7:	48 8b 73 08          	mov    0x8(%rbx),%rsi
  4021eb:	4c 89 e2             	mov    %r12,%rdx
  4021ee:	4c 89 ef             	mov    %r13,%rdi
  4021f1:	e8 aa eb ff ff       	callq  400da0 <memcpy@plt>
  4021f6:	4c 01 63 08          	add    %r12,0x8(%rbx)
  4021fa:	29 6b 04             	sub    %ebp,0x4(%rbx)
  4021fd:	4c 89 e0             	mov    %r12,%rax
  402200:	eb 0e                	jmp    402210 <rio_read+0x80>
  402202:	48 c7 c0 ff ff ff ff 	mov    $0xffffffffffffffff,%rax
  402209:	eb 05                	jmp    402210 <rio_read+0x80>
  40220b:	b8 00 00 00 00       	mov    $0x0,%eax
  402210:	48 83 c4 08          	add    $0x8,%rsp
  402214:	5b                   	pop    %rbx
  402215:	5d                   	pop    %rbp
  402216:	41 5c                	pop    %r12
  402218:	41 5d                	pop    %r13
  40221a:	c3                   	retq   

000000000040221b <rio_readlineb>:
  40221b:	41 55                	push   %r13
  40221d:	41 54                	push   %r12
  40221f:	55                   	push   %rbp
  402220:	53                   	push   %rbx
  402221:	48 83 ec 18          	sub    $0x18,%rsp
  402225:	49 89 fd             	mov    %rdi,%r13
  402228:	48 89 f5             	mov    %rsi,%rbp
  40222b:	49 89 d4             	mov    %rdx,%r12
  40222e:	64 48 8b 04 25 28 00 	mov    %fs:0x28,%rax
  402235:	00 00 
  402237:	48 89 44 24 08       	mov    %rax,0x8(%rsp)
  40223c:	31 c0                	xor    %eax,%eax
  40223e:	bb 01 00 00 00       	mov    $0x1,%ebx
  402243:	eb 3f                	jmp    402284 <rio_readlineb+0x69>
  402245:	ba 01 00 00 00       	mov    $0x1,%edx
  40224a:	48 8d 74 24 07       	lea    0x7(%rsp),%rsi
  40224f:	4c 89 ef             	mov    %r13,%rdi
  402252:	e8 39 ff ff ff       	callq  402190 <rio_read>
  402257:	83 f8 01             	cmp    $0x1,%eax
  40225a:	75 15                	jne    402271 <rio_readlineb+0x56>
  40225c:	48 8d 45 01          	lea    0x1(%rbp),%rax
  402260:	0f b6 54 24 07       	movzbl 0x7(%rsp),%edx
  402265:	88 55 00             	mov    %dl,0x0(%rbp)
  402268:	80 7c 24 07 0a       	cmpb   $0xa,0x7(%rsp)
  40226d:	75 0e                	jne    40227d <rio_readlineb+0x62>
  40226f:	eb 1a                	jmp    40228b <rio_readlineb+0x70>
  402271:	85 c0                	test   %eax,%eax
  402273:	75 22                	jne    402297 <rio_readlineb+0x7c>
  402275:	48 83 fb 01          	cmp    $0x1,%rbx
  402279:	75 13                	jne    40228e <rio_readlineb+0x73>
  40227b:	eb 23                	jmp    4022a0 <rio_readlineb+0x85>
  40227d:	48 83 c3 01          	add    $0x1,%rbx
  402281:	48 89 c5             	mov    %rax,%rbp
  402284:	4c 39 e3             	cmp    %r12,%rbx
  402287:	72 bc                	jb     402245 <rio_readlineb+0x2a>
  402289:	eb 03                	jmp    40228e <rio_readlineb+0x73>
  40228b:	48 89 c5             	mov    %rax,%rbp
  40228e:	c6 45 00 00          	movb   $0x0,0x0(%rbp)
  402292:	48 89 d8             	mov    %rbx,%rax
  402295:	eb 0e                	jmp    4022a5 <rio_readlineb+0x8a>
  402297:	48 c7 c0 ff ff ff ff 	mov    $0xffffffffffffffff,%rax
  40229e:	eb 05                	jmp    4022a5 <rio_readlineb+0x8a>
  4022a0:	b8 00 00 00 00       	mov    $0x0,%eax
  4022a5:	48 8b 4c 24 08       	mov    0x8(%rsp),%rcx
  4022aa:	64 48 33 0c 25 28 00 	xor    %fs:0x28,%rcx
  4022b1:	00 00 
  4022b3:	74 05                	je     4022ba <rio_readlineb+0x9f>
  4022b5:	e8 36 ea ff ff       	callq  400cf0 <__stack_chk_fail@plt>
  4022ba:	48 83 c4 18          	add    $0x18,%rsp
  4022be:	5b                   	pop    %rbx
  4022bf:	5d                   	pop    %rbp
  4022c0:	41 5c                	pop    %r12
  4022c2:	41 5d                	pop    %r13
  4022c4:	c3                   	retq   

00000000004022c5 <urlencode>:
  4022c5:	41 54                	push   %r12
  4022c7:	55                   	push   %rbp
  4022c8:	53                   	push   %rbx
  4022c9:	48 83 ec 10          	sub    $0x10,%rsp
  4022cd:	48 89 fb             	mov    %rdi,%rbx
  4022d0:	48 89 f5             	mov    %rsi,%rbp
  4022d3:	64 48 8b 04 25 28 00 	mov    %fs:0x28,%rax
  4022da:	00 00 
  4022dc:	48 89 44 24 08       	mov    %rax,0x8(%rsp)
  4022e1:	31 c0                	xor    %eax,%eax
  4022e3:	48 c7 c1 ff ff ff ff 	mov    $0xffffffffffffffff,%rcx
  4022ea:	f2 ae                	repnz scas %es:(%rdi),%al
  4022ec:	48 f7 d1             	not    %rcx
  4022ef:	8d 41 ff             	lea    -0x1(%rcx),%eax
  4022f2:	e9 aa 00 00 00       	jmpq   4023a1 <urlencode+0xdc>
  4022f7:	44 0f b6 03          	movzbl (%rbx),%r8d
  4022fb:	41 80 f8 2a          	cmp    $0x2a,%r8b
  4022ff:	0f 94 c2             	sete   %dl
  402302:	41 80 f8 2d          	cmp    $0x2d,%r8b
  402306:	0f 94 c0             	sete   %al
  402309:	08 c2                	or     %al,%dl
  40230b:	75 24                	jne    402331 <urlencode+0x6c>
  40230d:	41 80 f8 2e          	cmp    $0x2e,%r8b
  402311:	74 1e                	je     402331 <urlencode+0x6c>
  402313:	41 80 f8 5f          	cmp    $0x5f,%r8b
  402317:	74 18                	je     402331 <urlencode+0x6c>
  402319:	41 8d 40 d0          	lea    -0x30(%r8),%eax
  40231d:	3c 09                	cmp    $0x9,%al
  40231f:	76 10                	jbe    402331 <urlencode+0x6c>
  402321:	41 8d 40 bf          	lea    -0x41(%r8),%eax
  402325:	3c 19                	cmp    $0x19,%al
  402327:	76 08                	jbe    402331 <urlencode+0x6c>
  402329:	41 8d 40 9f          	lea    -0x61(%r8),%eax
  40232d:	3c 19                	cmp    $0x19,%al
  40232f:	77 0a                	ja     40233b <urlencode+0x76>
  402331:	44 88 45 00          	mov    %r8b,0x0(%rbp)
  402335:	48 8d 6d 01          	lea    0x1(%rbp),%rbp
  402339:	eb 5f                	jmp    40239a <urlencode+0xd5>
  40233b:	41 80 f8 20          	cmp    $0x20,%r8b
  40233f:	75 0a                	jne    40234b <urlencode+0x86>
  402341:	c6 45 00 2b          	movb   $0x2b,0x0(%rbp)
  402345:	48 8d 6d 01          	lea    0x1(%rbp),%rbp
  402349:	eb 4f                	jmp    40239a <urlencode+0xd5>
  40234b:	41 8d 40 e0          	lea    -0x20(%r8),%eax
  40234f:	3c 5f                	cmp    $0x5f,%al
  402351:	0f 96 c2             	setbe  %dl
  402354:	41 80 f8 09          	cmp    $0x9,%r8b
  402358:	0f 94 c0             	sete   %al
  40235b:	08 c2                	or     %al,%dl
  40235d:	74 50                	je     4023af <urlencode+0xea>
  40235f:	45 0f b6 c0          	movzbl %r8b,%r8d
  402363:	b9 f8 37 40 00       	mov    $0x4037f8,%ecx
  402368:	ba 08 00 00 00       	mov    $0x8,%edx
  40236d:	be 01 00 00 00       	mov    $0x1,%esi
  402372:	48 89 e7             	mov    %rsp,%rdi
  402375:	b8 00 00 00 00       	mov    $0x0,%eax
  40237a:	e8 01 eb ff ff       	callq  400e80 <__sprintf_chk@plt>
  40237f:	0f b6 04 24          	movzbl (%rsp),%eax
  402383:	88 45 00             	mov    %al,0x0(%rbp)
  402386:	0f b6 44 24 01       	movzbl 0x1(%rsp),%eax
  40238b:	88 45 01             	mov    %al,0x1(%rbp)
  40238e:	0f b6 44 24 02       	movzbl 0x2(%rsp),%eax
  402393:	88 45 02             	mov    %al,0x2(%rbp)
  402396:	48 8d 6d 03          	lea    0x3(%rbp),%rbp
  40239a:	48 83 c3 01          	add    $0x1,%rbx
  40239e:	44 89 e0             	mov    %r12d,%eax
  4023a1:	44 8d 60 ff          	lea    -0x1(%rax),%r12d
  4023a5:	85 c0                	test   %eax,%eax
  4023a7:	0f 85 4a ff ff ff    	jne    4022f7 <urlencode+0x32>
  4023ad:	eb 05                	jmp    4023b4 <urlencode+0xef>
  4023af:	b8 ff ff ff ff       	mov    $0xffffffff,%eax
  4023b4:	48 8b 74 24 08       	mov    0x8(%rsp),%rsi
  4023b9:	64 48 33 34 25 28 00 	xor    %fs:0x28,%rsi
  4023c0:	00 00 
  4023c2:	74 05                	je     4023c9 <urlencode+0x104>
  4023c4:	e8 27 e9 ff ff       	callq  400cf0 <__stack_chk_fail@plt>
  4023c9:	48 83 c4 10          	add    $0x10,%rsp
  4023cd:	5b                   	pop    %rbx
  4023ce:	5d                   	pop    %rbp
  4023cf:	41 5c                	pop    %r12
  4023d1:	c3                   	retq   

00000000004023d2 <submitr>:
  4023d2:	41 57                	push   %r15
  4023d4:	41 56                	push   %r14
  4023d6:	41 55                	push   %r13
  4023d8:	41 54                	push   %r12
  4023da:	55                   	push   %rbp
  4023db:	53                   	push   %rbx
  4023dc:	48 81 ec 58 a0 00 00 	sub    $0xa058,%rsp
  4023e3:	49 89 fc             	mov    %rdi,%r12
  4023e6:	89 74 24 04          	mov    %esi,0x4(%rsp)
  4023ea:	49 89 d7             	mov    %rdx,%r15
  4023ed:	49 89 ce             	mov    %rcx,%r14
  4023f0:	4c 89 44 24 08       	mov    %r8,0x8(%rsp)
  4023f5:	4d 89 cd             	mov    %r9,%r13
  4023f8:	48 8b 9c 24 90 a0 00 	mov    0xa090(%rsp),%rbx
  4023ff:	00 
  402400:	64 48 8b 04 25 28 00 	mov    %fs:0x28,%rax
  402407:	00 00 
  402409:	48 89 84 24 48 a0 00 	mov    %rax,0xa048(%rsp)
  402410:	00 
  402411:	31 c0                	xor    %eax,%eax
  402413:	c7 44 24 1c 00 00 00 	movl   $0x0,0x1c(%rsp)
  40241a:	00 
  40241b:	ba 00 00 00 00       	mov    $0x0,%edx
  402420:	be 01 00 00 00       	mov    $0x1,%esi
  402425:	bf 02 00 00 00       	mov    $0x2,%edi
  40242a:	e8 61 ea ff ff       	callq  400e90 <socket@plt>
  40242f:	85 c0                	test   %eax,%eax
  402431:	79 4e                	jns    402481 <submitr+0xaf>
  402433:	48 b8 45 72 72 6f 72 	movabs $0x43203a726f727245,%rax
  40243a:	3a 20 43 
  40243d:	48 89 03             	mov    %rax,(%rbx)
  402440:	48 b8 6c 69 65 6e 74 	movabs $0x6e7520746e65696c,%rax
  402447:	20 75 6e 
  40244a:	48 89 43 08          	mov    %rax,0x8(%rbx)
  40244e:	48 b8 61 62 6c 65 20 	movabs $0x206f7420656c6261,%rax
  402455:	74 6f 20 
  402458:	48 89 43 10          	mov    %rax,0x10(%rbx)
  40245c:	48 b8 63 72 65 61 74 	movabs $0x7320657461657263,%rax
  402463:	65 20 73 
  402466:	48 89 43 18          	mov    %rax,0x18(%rbx)
  40246a:	c7 43 20 6f 63 6b 65 	movl   $0x656b636f,0x20(%rbx)
  402471:	66 c7 43 24 74 00    	movw   $0x74,0x24(%rbx)
  402477:	b8 ff ff ff ff       	mov    $0xffffffff,%eax
  40247c:	e9 97 06 00 00       	jmpq   402b18 <submitr+0x746>
  402481:	89 c5                	mov    %eax,%ebp
  402483:	4c 89 e7             	mov    %r12,%rdi
  402486:	e8 e5 e8 ff ff       	callq  400d70 <gethostbyname@plt>
  40248b:	48 85 c0             	test   %rax,%rax
  40248e:	75 67                	jne    4024f7 <submitr+0x125>
  402490:	48 b8 45 72 72 6f 72 	movabs $0x44203a726f727245,%rax
  402497:	3a 20 44 
  40249a:	48 89 03             	mov    %rax,(%rbx)
  40249d:	48 b8 4e 53 20 69 73 	movabs $0x6e7520736920534e,%rax
  4024a4:	20 75 6e 
  4024a7:	48 89 43 08          	mov    %rax,0x8(%rbx)
  4024ab:	48 b8 61 62 6c 65 20 	movabs $0x206f7420656c6261,%rax
  4024b2:	74 6f 20 
  4024b5:	48 89 43 10          	mov    %rax,0x10(%rbx)
  4024b9:	48 b8 72 65 73 6f 6c 	movabs $0x2065766c6f736572,%rax
  4024c0:	76 65 20 
  4024c3:	48 89 43 18          	mov    %rax,0x18(%rbx)
  4024c7:	48 b8 73 65 72 76 65 	movabs $0x6120726576726573,%rax
  4024ce:	72 20 61 
  4024d1:	48 89 43 20          	mov    %rax,0x20(%rbx)
  4024d5:	c7 43 28 64 64 72 65 	movl   $0x65726464,0x28(%rbx)
  4024dc:	66 c7 43 2c 73 73    	movw   $0x7373,0x2c(%rbx)
  4024e2:	c6 43 2e 00          	movb   $0x0,0x2e(%rbx)
  4024e6:	89 ef                	mov    %ebp,%edi
  4024e8:	e8 43 e8 ff ff       	callq  400d30 <close@plt>
  4024ed:	b8 ff ff ff ff       	mov    $0xffffffff,%eax
  4024f2:	e9 21 06 00 00       	jmpq   402b18 <submitr+0x746>
  4024f7:	48 c7 44 24 20 00 00 	movq   $0x0,0x20(%rsp)
  4024fe:	00 00 
  402500:	48 c7 44 24 28 00 00 	movq   $0x0,0x28(%rsp)
  402507:	00 00 
  402509:	66 c7 44 24 20 02 00 	movw   $0x2,0x20(%rsp)
  402510:	48 63 50 14          	movslq 0x14(%rax),%rdx
  402514:	48 8b 40 18          	mov    0x18(%rax),%rax
  402518:	48 8b 30             	mov    (%rax),%rsi
  40251b:	48 8d 7c 24 24       	lea    0x24(%rsp),%rdi
  402520:	b9 0c 00 00 00       	mov    $0xc,%ecx
  402525:	e8 56 e8 ff ff       	callq  400d80 <__memmove_chk@plt>
  40252a:	0f b7 44 24 04       	movzwl 0x4(%rsp),%eax
  40252f:	66 c1 c8 08          	ror    $0x8,%ax
  402533:	66 89 44 24 22       	mov    %ax,0x22(%rsp)
  402538:	ba 10 00 00 00       	mov    $0x10,%edx
  40253d:	48 8d 74 24 20       	lea    0x20(%rsp),%rsi
  402542:	89 ef                	mov    %ebp,%edi
  402544:	e8 17 e9 ff ff       	callq  400e60 <connect@plt>
  402549:	85 c0                	test   %eax,%eax
  40254b:	79 59                	jns    4025a6 <submitr+0x1d4>
  40254d:	48 b8 45 72 72 6f 72 	movabs $0x55203a726f727245,%rax
  402554:	3a 20 55 
  402557:	48 89 03             	mov    %rax,(%rbx)
  40255a:	48 b8 6e 61 62 6c 65 	movabs $0x6f7420656c62616e,%rax
  402561:	20 74 6f 
  402564:	48 89 43 08          	mov    %rax,0x8(%rbx)
  402568:	48 b8 20 63 6f 6e 6e 	movabs $0x7463656e6e6f6320,%rax
  40256f:	65 63 74 
  402572:	48 89 43 10          	mov    %rax,0x10(%rbx)
  402576:	48 b8 20 74 6f 20 74 	movabs $0x20656874206f7420,%rax
  40257d:	68 65 20 
  402580:	48 89 43 18          	mov    %rax,0x18(%rbx)
  402584:	c7 43 20 73 65 72 76 	movl   $0x76726573,0x20(%rbx)
  40258b:	66 c7 43 24 65 72    	movw   $0x7265,0x24(%rbx)
  402591:	c6 43 26 00          	movb   $0x0,0x26(%rbx)
  402595:	89 ef                	mov    %ebp,%edi
  402597:	e8 94 e7 ff ff       	callq  400d30 <close@plt>
  40259c:	b8 ff ff ff ff       	mov    $0xffffffff,%eax
  4025a1:	e9 72 05 00 00       	jmpq   402b18 <submitr+0x746>
  4025a6:	48 c7 c6 ff ff ff ff 	mov    $0xffffffffffffffff,%rsi
  4025ad:	b8 00 00 00 00       	mov    $0x0,%eax
  4025b2:	48 89 f1             	mov    %rsi,%rcx
  4025b5:	4c 89 ef             	mov    %r13,%rdi
  4025b8:	f2 ae                	repnz scas %es:(%rdi),%al
  4025ba:	48 f7 d1             	not    %rcx
  4025bd:	48 89 ca             	mov    %rcx,%rdx
  4025c0:	48 89 f1             	mov    %rsi,%rcx
  4025c3:	4c 89 ff             	mov    %r15,%rdi
  4025c6:	f2 ae                	repnz scas %es:(%rdi),%al
  4025c8:	48 f7 d1             	not    %rcx
  4025cb:	49 89 c8             	mov    %rcx,%r8
  4025ce:	48 89 f1             	mov    %rsi,%rcx
  4025d1:	4c 89 f7             	mov    %r14,%rdi
  4025d4:	f2 ae                	repnz scas %es:(%rdi),%al
  4025d6:	48 f7 d1             	not    %rcx
  4025d9:	4d 8d 44 08 fe       	lea    -0x2(%r8,%rcx,1),%r8
  4025de:	48 89 f1             	mov    %rsi,%rcx
  4025e1:	48 8b 7c 24 08       	mov    0x8(%rsp),%rdi
  4025e6:	f2 ae                	repnz scas %es:(%rdi),%al
  4025e8:	48 89 c8             	mov    %rcx,%rax
  4025eb:	48 f7 d0             	not    %rax
  4025ee:	49 8d 4c 00 ff       	lea    -0x1(%r8,%rax,1),%rcx
  4025f3:	48 8d 44 52 fd       	lea    -0x3(%rdx,%rdx,2),%rax
  4025f8:	48 8d 84 01 80 00 00 	lea    0x80(%rcx,%rax,1),%rax
  4025ff:	00 
  402600:	48 3d 00 20 00 00    	cmp    $0x2000,%rax
  402606:	76 72                	jbe    40267a <submitr+0x2a8>
  402608:	48 b8 45 72 72 6f 72 	movabs $0x52203a726f727245,%rax
  40260f:	3a 20 52 
  402612:	48 89 03             	mov    %rax,(%rbx)
  402615:	48 b8 65 73 75 6c 74 	movabs $0x747320746c757365,%rax
  40261c:	20 73 74 
  40261f:	48 89 43 08          	mov    %rax,0x8(%rbx)
  402623:	48 b8 72 69 6e 67 20 	movabs $0x6f6f7420676e6972,%rax
  40262a:	74 6f 6f 
  40262d:	48 89 43 10          	mov    %rax,0x10(%rbx)
  402631:	48 b8 20 6c 61 72 67 	movabs $0x202e656772616c20,%rax
  402638:	65 2e 20 
  40263b:	48 89 43 18          	mov    %rax,0x18(%rbx)
  40263f:	48 b8 49 6e 63 72 65 	movabs $0x6573616572636e49,%rax
  402646:	61 73 65 
  402649:	48 89 43 20          	mov    %rax,0x20(%rbx)
  40264d:	48 b8 20 53 55 42 4d 	movabs $0x5254494d42555320,%rax
  402654:	49 54 52 
  402657:	48 89 43 28          	mov    %rax,0x28(%rbx)
  40265b:	48 b8 5f 4d 41 58 42 	movabs $0x46554258414d5f,%rax
  402662:	55 46 00 
  402665:	48 89 43 30          	mov    %rax,0x30(%rbx)
  402669:	89 ef                	mov    %ebp,%edi
  40266b:	e8 c0 e6 ff ff       	callq  400d30 <close@plt>
  402670:	b8 ff ff ff ff       	mov    $0xffffffff,%eax
  402675:	e9 9e 04 00 00       	jmpq   402b18 <submitr+0x746>
  40267a:	48 8d b4 24 40 40 00 	lea    0x4040(%rsp),%rsi
  402681:	00 
  402682:	b9 00 04 00 00       	mov    $0x400,%ecx
  402687:	b8 00 00 00 00       	mov    $0x0,%eax
  40268c:	48 89 f7             	mov    %rsi,%rdi
  40268f:	f3 48 ab             	rep stos %rax,%es:(%rdi)
  402692:	4c 89 ef             	mov    %r13,%rdi
  402695:	e8 2b fc ff ff       	callq  4022c5 <urlencode>
  40269a:	85 c0                	test   %eax,%eax
  40269c:	0f 89 8a 00 00 00    	jns    40272c <submitr+0x35a>
  4026a2:	48 b8 45 72 72 6f 72 	movabs $0x52203a726f727245,%rax
  4026a9:	3a 20 52 
  4026ac:	48 89 03             	mov    %rax,(%rbx)
  4026af:	48 b8 65 73 75 6c 74 	movabs $0x747320746c757365,%rax
  4026b6:	20 73 74 
  4026b9:	48 89 43 08          	mov    %rax,0x8(%rbx)
  4026bd:	48 b8 72 69 6e 67 20 	movabs $0x6e6f6320676e6972,%rax
  4026c4:	63 6f 6e 
  4026c7:	48 89 43 10          	mov    %rax,0x10(%rbx)
  4026cb:	48 b8 74 61 69 6e 73 	movabs $0x6e6120736e696174,%rax
  4026d2:	20 61 6e 
  4026d5:	48 89 43 18          	mov    %rax,0x18(%rbx)
  4026d9:	48 b8 20 69 6c 6c 65 	movabs $0x6c6167656c6c6920,%rax
  4026e0:	67 61 6c 
  4026e3:	48 89 43 20          	mov    %rax,0x20(%rbx)
  4026e7:	48 b8 20 6f 72 20 75 	movabs $0x72706e7520726f20,%rax
  4026ee:	6e 70 72 
  4026f1:	48 89 43 28          	mov    %rax,0x28(%rbx)
  4026f5:	48 b8 69 6e 74 61 62 	movabs $0x20656c6261746e69,%rax
  4026fc:	6c 65 20 
  4026ff:	48 89 43 30          	mov    %rax,0x30(%rbx)
  402703:	48 b8 63 68 61 72 61 	movabs $0x6574636172616863,%rax
  40270a:	63 74 65 
  40270d:	48 89 43 38          	mov    %rax,0x38(%rbx)
  402711:	66 c7 43 40 72 2e    	movw   $0x2e72,0x40(%rbx)
  402717:	c6 43 42 00          	movb   $0x0,0x42(%rbx)
  40271b:	89 ef                	mov    %ebp,%edi
  40271d:	e8 0e e6 ff ff       	callq  400d30 <close@plt>
  402722:	b8 ff ff ff ff       	mov    $0xffffffff,%eax
  402727:	e9 ec 03 00 00       	jmpq   402b18 <submitr+0x746>
  40272c:	4c 8d ac 24 40 20 00 	lea    0x2040(%rsp),%r13
  402733:	00 
  402734:	41 54                	push   %r12
  402736:	48 8d 84 24 48 40 00 	lea    0x4048(%rsp),%rax
  40273d:	00 
  40273e:	50                   	push   %rax
  40273f:	4d 89 f9             	mov    %r15,%r9
  402742:	4d 89 f0             	mov    %r14,%r8
  402745:	b9 88 37 40 00       	mov    $0x403788,%ecx
  40274a:	ba 00 20 00 00       	mov    $0x2000,%edx
  40274f:	be 01 00 00 00       	mov    $0x1,%esi
  402754:	4c 89 ef             	mov    %r13,%rdi
  402757:	b8 00 00 00 00       	mov    $0x0,%eax
  40275c:	e8 1f e7 ff ff       	callq  400e80 <__sprintf_chk@plt>
  402761:	b8 00 00 00 00       	mov    $0x0,%eax
  402766:	48 c7 c1 ff ff ff ff 	mov    $0xffffffffffffffff,%rcx
  40276d:	4c 89 ef             	mov    %r13,%rdi
  402770:	f2 ae                	repnz scas %es:(%rdi),%al
  402772:	48 f7 d1             	not    %rcx
  402775:	48 8d 51 ff          	lea    -0x1(%rcx),%rdx
  402779:	4c 89 ee             	mov    %r13,%rsi
  40277c:	89 ef                	mov    %ebp,%edi
  40277e:	e8 b1 f9 ff ff       	callq  402134 <rio_writen>
  402783:	48 83 c4 10          	add    $0x10,%rsp
  402787:	48 85 c0             	test   %rax,%rax
  40278a:	79 6e                	jns    4027fa <submitr+0x428>
  40278c:	48 b8 45 72 72 6f 72 	movabs $0x43203a726f727245,%rax
  402793:	3a 20 43 
  402796:	48 89 03             	mov    %rax,(%rbx)
  402799:	48 b8 6c 69 65 6e 74 	movabs $0x6e7520746e65696c,%rax
  4027a0:	20 75 6e 
  4027a3:	48 89 43 08          	mov    %rax,0x8(%rbx)
  4027a7:	48 b8 61 62 6c 65 20 	movabs $0x206f7420656c6261,%rax
  4027ae:	74 6f 20 
  4027b1:	48 89 43 10          	mov    %rax,0x10(%rbx)
  4027b5:	48 b8 77 72 69 74 65 	movabs $0x6f74206574697277,%rax
  4027bc:	20 74 6f 
  4027bf:	48 89 43 18          	mov    %rax,0x18(%rbx)
  4027c3:	48 b8 20 74 68 65 20 	movabs $0x7365722065687420,%rax
  4027ca:	72 65 73 
  4027cd:	48 89 43 20          	mov    %rax,0x20(%rbx)
  4027d1:	48 b8 75 6c 74 20 73 	movabs $0x7672657320746c75,%rax
  4027d8:	65 72 76 
  4027db:	48 89 43 28          	mov    %rax,0x28(%rbx)
  4027df:	66 c7 43 30 65 72    	movw   $0x7265,0x30(%rbx)
  4027e5:	c6 43 32 00          	movb   $0x0,0x32(%rbx)
  4027e9:	89 ef                	mov    %ebp,%edi
  4027eb:	e8 40 e5 ff ff       	callq  400d30 <close@plt>
  4027f0:	b8 ff ff ff ff       	mov    $0xffffffff,%eax
  4027f5:	e9 1e 03 00 00       	jmpq   402b18 <submitr+0x746>
  4027fa:	89 ee                	mov    %ebp,%esi
  4027fc:	48 8d 7c 24 30       	lea    0x30(%rsp),%rdi
  402801:	e8 ee f8 ff ff       	callq  4020f4 <rio_readinitb>
  402806:	ba 00 20 00 00       	mov    $0x2000,%edx
  40280b:	48 8d b4 24 40 20 00 	lea    0x2040(%rsp),%rsi
  402812:	00 
  402813:	48 8d 7c 24 30       	lea    0x30(%rsp),%rdi
  402818:	e8 fe f9 ff ff       	callq  40221b <rio_readlineb>
  40281d:	48 85 c0             	test   %rax,%rax
  402820:	7f 7d                	jg     40289f <submitr+0x4cd>
  402822:	48 b8 45 72 72 6f 72 	movabs $0x43203a726f727245,%rax
  402829:	3a 20 43 
  40282c:	48 89 03             	mov    %rax,(%rbx)
  40282f:	48 b8 6c 69 65 6e 74 	movabs $0x6e7520746e65696c,%rax
  402836:	20 75 6e 
  402839:	48 89 43 08          	mov    %rax,0x8(%rbx)
  40283d:	48 b8 61 62 6c 65 20 	movabs $0x206f7420656c6261,%rax
  402844:	74 6f 20 
  402847:	48 89 43 10          	mov    %rax,0x10(%rbx)
  40284b:	48 b8 72 65 61 64 20 	movabs $0x7269662064616572,%rax
  402852:	66 69 72 
  402855:	48 89 43 18          	mov    %rax,0x18(%rbx)
  402859:	48 b8 73 74 20 68 65 	movabs $0x6564616568207473,%rax
  402860:	61 64 65 
  402863:	48 89 43 20          	mov    %rax,0x20(%rbx)
  402867:	48 b8 72 20 66 72 6f 	movabs $0x72206d6f72662072,%rax
  40286e:	6d 20 72 
  402871:	48 89 43 28          	mov    %rax,0x28(%rbx)
  402875:	48 b8 65 73 75 6c 74 	movabs $0x657320746c757365,%rax
  40287c:	20 73 65 
  40287f:	48 89 43 30          	mov    %rax,0x30(%rbx)
  402883:	c7 43 38 72 76 65 72 	movl   $0x72657672,0x38(%rbx)
  40288a:	c6 43 3c 00          	movb   $0x0,0x3c(%rbx)
  40288e:	89 ef                	mov    %ebp,%edi
  402890:	e8 9b e4 ff ff       	callq  400d30 <close@plt>
  402895:	b8 ff ff ff ff       	mov    $0xffffffff,%eax
  40289a:	e9 79 02 00 00       	jmpq   402b18 <submitr+0x746>
  40289f:	4c 8d 84 24 40 80 00 	lea    0x8040(%rsp),%r8
  4028a6:	00 
  4028a7:	48 8d 4c 24 1c       	lea    0x1c(%rsp),%rcx
  4028ac:	48 8d 94 24 40 60 00 	lea    0x6040(%rsp),%rdx
  4028b3:	00 
  4028b4:	be ff 37 40 00       	mov    $0x4037ff,%esi
  4028b9:	48 8d bc 24 40 20 00 	lea    0x2040(%rsp),%rdi
  4028c0:	00 
  4028c1:	b8 00 00 00 00       	mov    $0x0,%eax
  4028c6:	e8 15 e5 ff ff       	callq  400de0 <__isoc99_sscanf@plt>
  4028cb:	e9 95 00 00 00       	jmpq   402965 <submitr+0x593>
  4028d0:	ba 00 20 00 00       	mov    $0x2000,%edx
  4028d5:	48 8d b4 24 40 20 00 	lea    0x2040(%rsp),%rsi
  4028dc:	00 
  4028dd:	48 8d 7c 24 30       	lea    0x30(%rsp),%rdi
  4028e2:	e8 34 f9 ff ff       	callq  40221b <rio_readlineb>
  4028e7:	48 85 c0             	test   %rax,%rax
  4028ea:	7f 79                	jg     402965 <submitr+0x593>
  4028ec:	48 b8 45 72 72 6f 72 	movabs $0x43203a726f727245,%rax
  4028f3:	3a 20 43 
  4028f6:	48 89 03             	mov    %rax,(%rbx)
  4028f9:	48 b8 6c 69 65 6e 74 	movabs $0x6e7520746e65696c,%rax
  402900:	20 75 6e 
  402903:	48 89 43 08          	mov    %rax,0x8(%rbx)
  402907:	48 b8 61 62 6c 65 20 	movabs $0x206f7420656c6261,%rax
  40290e:	74 6f 20 
  402911:	48 89 43 10          	mov    %rax,0x10(%rbx)
  402915:	48 b8 72 65 61 64 20 	movabs $0x6165682064616572,%rax
  40291c:	68 65 61 
  40291f:	48 89 43 18          	mov    %rax,0x18(%rbx)
  402923:	48 b8 64 65 72 73 20 	movabs $0x6f72662073726564,%rax
  40292a:	66 72 6f 
  40292d:	48 89 43 20          	mov    %rax,0x20(%rbx)
  402931:	48 b8 6d 20 74 68 65 	movabs $0x657220656874206d,%rax
  402938:	20 72 65 
  40293b:	48 89 43 28          	mov    %rax,0x28(%rbx)
  40293f:	48 b8 73 75 6c 74 20 	movabs $0x72657320746c7573,%rax
  402946:	73 65 72 
  402949:	48 89 43 30          	mov    %rax,0x30(%rbx)
  40294d:	c7 43 38 76 65 72 00 	movl   $0x726576,0x38(%rbx)
  402954:	89 ef                	mov    %ebp,%edi
  402956:	e8 d5 e3 ff ff       	callq  400d30 <close@plt>
  40295b:	b8 ff ff ff ff       	mov    $0xffffffff,%eax
  402960:	e9 b3 01 00 00       	jmpq   402b18 <submitr+0x746>
  402965:	0f b6 94 24 40 20 00 	movzbl 0x2040(%rsp),%edx
  40296c:	00 
  40296d:	b8 0d 00 00 00       	mov    $0xd,%eax
  402972:	29 d0                	sub    %edx,%eax
  402974:	75 1b                	jne    402991 <submitr+0x5bf>
  402976:	0f b6 94 24 41 20 00 	movzbl 0x2041(%rsp),%edx
  40297d:	00 
  40297e:	b8 0a 00 00 00       	mov    $0xa,%eax
  402983:	29 d0                	sub    %edx,%eax
  402985:	75 0a                	jne    402991 <submitr+0x5bf>
  402987:	0f b6 84 24 42 20 00 	movzbl 0x2042(%rsp),%eax
  40298e:	00 
  40298f:	f7 d8                	neg    %eax
  402991:	85 c0                	test   %eax,%eax
  402993:	0f 85 37 ff ff ff    	jne    4028d0 <submitr+0x4fe>
  402999:	ba 00 20 00 00       	mov    $0x2000,%edx
  40299e:	48 8d b4 24 40 20 00 	lea    0x2040(%rsp),%rsi
  4029a5:	00 
  4029a6:	48 8d 7c 24 30       	lea    0x30(%rsp),%rdi
  4029ab:	e8 6b f8 ff ff       	callq  40221b <rio_readlineb>
  4029b0:	48 85 c0             	test   %rax,%rax
  4029b3:	0f 8f 83 00 00 00    	jg     402a3c <submitr+0x66a>
  4029b9:	48 b8 45 72 72 6f 72 	movabs $0x43203a726f727245,%rax
  4029c0:	3a 20 43 
  4029c3:	48 89 03             	mov    %rax,(%rbx)
  4029c6:	48 b8 6c 69 65 6e 74 	movabs $0x6e7520746e65696c,%rax
  4029cd:	20 75 6e 
  4029d0:	48 89 43 08          	mov    %rax,0x8(%rbx)
  4029d4:	48 b8 61 62 6c 65 20 	movabs $0x206f7420656c6261,%rax
  4029db:	74 6f 20 
  4029de:	48 89 43 10          	mov    %rax,0x10(%rbx)
  4029e2:	48 b8 72 65 61 64 20 	movabs $0x6174732064616572,%rax
  4029e9:	73 74 61 
  4029ec:	48 89 43 18          	mov    %rax,0x18(%rbx)
  4029f0:	48 b8 74 75 73 20 6d 	movabs $0x7373656d20737574,%rax
  4029f7:	65 73 73 
  4029fa:	48 89 43 20          	mov    %rax,0x20(%rbx)
  4029fe:	48 b8 61 67 65 20 66 	movabs $0x6d6f726620656761,%rax
  402a05:	72 6f 6d 
  402a08:	48 89 43 28          	mov    %rax,0x28(%rbx)
  402a0c:	48 b8 20 72 65 73 75 	movabs $0x20746c7573657220,%rax
  402a13:	6c 74 20 
  402a16:	48 89 43 30          	mov    %rax,0x30(%rbx)
  402a1a:	c7 43 38 73 65 72 76 	movl   $0x76726573,0x38(%rbx)
  402a21:	66 c7 43 3c 65 72    	movw   $0x7265,0x3c(%rbx)
  402a27:	c6 43 3e 00          	movb   $0x0,0x3e(%rbx)
  402a2b:	89 ef                	mov    %ebp,%edi
  402a2d:	e8 fe e2 ff ff       	callq  400d30 <close@plt>
  402a32:	b8 ff ff ff ff       	mov    $0xffffffff,%eax
  402a37:	e9 dc 00 00 00       	jmpq   402b18 <submitr+0x746>
  402a3c:	44 8b 44 24 1c       	mov    0x1c(%rsp),%r8d
  402a41:	41 81 f8 c8 00 00 00 	cmp    $0xc8,%r8d
  402a48:	74 37                	je     402a81 <submitr+0x6af>
  402a4a:	4c 8d 8c 24 40 80 00 	lea    0x8040(%rsp),%r9
  402a51:	00 
  402a52:	b9 c8 37 40 00       	mov    $0x4037c8,%ecx
  402a57:	48 c7 c2 ff ff ff ff 	mov    $0xffffffffffffffff,%rdx
  402a5e:	be 01 00 00 00       	mov    $0x1,%esi
  402a63:	48 89 df             	mov    %rbx,%rdi
  402a66:	b8 00 00 00 00       	mov    $0x0,%eax
  402a6b:	e8 10 e4 ff ff       	callq  400e80 <__sprintf_chk@plt>
  402a70:	89 ef                	mov    %ebp,%edi
  402a72:	e8 b9 e2 ff ff       	callq  400d30 <close@plt>
  402a77:	b8 ff ff ff ff       	mov    $0xffffffff,%eax
  402a7c:	e9 97 00 00 00       	jmpq   402b18 <submitr+0x746>
  402a81:	48 8d b4 24 40 20 00 	lea    0x2040(%rsp),%rsi
  402a88:	00 
  402a89:	48 89 df             	mov    %rbx,%rdi
  402a8c:	e8 2f e2 ff ff       	callq  400cc0 <strcpy@plt>
  402a91:	89 ef                	mov    %ebp,%edi
  402a93:	e8 98 e2 ff ff       	callq  400d30 <close@plt>
  402a98:	0f b6 03             	movzbl (%rbx),%eax
  402a9b:	ba 4f 00 00 00       	mov    $0x4f,%edx
  402aa0:	29 c2                	sub    %eax,%edx
  402aa2:	75 22                	jne    402ac6 <submitr+0x6f4>
  402aa4:	0f b6 4b 01          	movzbl 0x1(%rbx),%ecx
  402aa8:	b8 4b 00 00 00       	mov    $0x4b,%eax
  402aad:	29 c8                	sub    %ecx,%eax
  402aaf:	75 17                	jne    402ac8 <submitr+0x6f6>
  402ab1:	0f b6 4b 02          	movzbl 0x2(%rbx),%ecx
  402ab5:	b8 0a 00 00 00       	mov    $0xa,%eax
  402aba:	29 c8                	sub    %ecx,%eax
  402abc:	75 0a                	jne    402ac8 <submitr+0x6f6>
  402abe:	0f b6 43 03          	movzbl 0x3(%rbx),%eax
  402ac2:	f7 d8                	neg    %eax
  402ac4:	eb 02                	jmp    402ac8 <submitr+0x6f6>
  402ac6:	89 d0                	mov    %edx,%eax
  402ac8:	85 c0                	test   %eax,%eax
  402aca:	74 40                	je     402b0c <submitr+0x73a>
  402acc:	bf 10 38 40 00       	mov    $0x403810,%edi
  402ad1:	b9 05 00 00 00       	mov    $0x5,%ecx
  402ad6:	48 89 de             	mov    %rbx,%rsi
  402ad9:	f3 a6                	repz cmpsb %es:(%rdi),%ds:(%rsi)
  402adb:	0f 97 c0             	seta   %al
  402ade:	0f 92 c1             	setb   %cl
  402ae1:	29 c8                	sub    %ecx,%eax
  402ae3:	0f be c0             	movsbl %al,%eax
  402ae6:	85 c0                	test   %eax,%eax
  402ae8:	74 2e                	je     402b18 <submitr+0x746>
  402aea:	85 d2                	test   %edx,%edx
  402aec:	75 13                	jne    402b01 <submitr+0x72f>
  402aee:	0f b6 43 01          	movzbl 0x1(%rbx),%eax
  402af2:	ba 4b 00 00 00       	mov    $0x4b,%edx
  402af7:	29 c2                	sub    %eax,%edx
  402af9:	75 06                	jne    402b01 <submitr+0x72f>
  402afb:	0f b6 53 02          	movzbl 0x2(%rbx),%edx
  402aff:	f7 da                	neg    %edx
  402b01:	85 d2                	test   %edx,%edx
  402b03:	75 0e                	jne    402b13 <submitr+0x741>
  402b05:	b8 00 00 00 00       	mov    $0x0,%eax
  402b0a:	eb 0c                	jmp    402b18 <submitr+0x746>
  402b0c:	b8 00 00 00 00       	mov    $0x0,%eax
  402b11:	eb 05                	jmp    402b18 <submitr+0x746>
  402b13:	b8 ff ff ff ff       	mov    $0xffffffff,%eax
  402b18:	48 8b 9c 24 48 a0 00 	mov    0xa048(%rsp),%rbx
  402b1f:	00 
  402b20:	64 48 33 1c 25 28 00 	xor    %fs:0x28,%rbx
  402b27:	00 00 
  402b29:	74 05                	je     402b30 <submitr+0x75e>
  402b2b:	e8 c0 e1 ff ff       	callq  400cf0 <__stack_chk_fail@plt>
  402b30:	48 81 c4 58 a0 00 00 	add    $0xa058,%rsp
  402b37:	5b                   	pop    %rbx
  402b38:	5d                   	pop    %rbp
  402b39:	41 5c                	pop    %r12
  402b3b:	41 5d                	pop    %r13
  402b3d:	41 5e                	pop    %r14
  402b3f:	41 5f                	pop    %r15
  402b41:	c3                   	retq   

0000000000402b42 <init_timeout>:
  402b42:	85 ff                	test   %edi,%edi
  402b44:	74 23                	je     402b69 <init_timeout+0x27>
  402b46:	53                   	push   %rbx
  402b47:	89 fb                	mov    %edi,%ebx
  402b49:	85 ff                	test   %edi,%edi
  402b4b:	79 05                	jns    402b52 <init_timeout+0x10>
  402b4d:	bb 00 00 00 00       	mov    $0x0,%ebx
  402b52:	be 06 21 40 00       	mov    $0x402106,%esi
  402b57:	bf 0e 00 00 00       	mov    $0xe,%edi
  402b5c:	e8 ff e1 ff ff       	callq  400d60 <signal@plt>
  402b61:	89 df                	mov    %ebx,%edi
  402b63:	e8 b8 e1 ff ff       	callq  400d20 <alarm@plt>
  402b68:	5b                   	pop    %rbx
  402b69:	f3 c3                	repz retq 

0000000000402b6b <init_driver>:
  402b6b:	55                   	push   %rbp
  402b6c:	53                   	push   %rbx
  402b6d:	48 83 ec 28          	sub    $0x28,%rsp
  402b71:	48 89 fd             	mov    %rdi,%rbp
  402b74:	64 48 8b 04 25 28 00 	mov    %fs:0x28,%rax
  402b7b:	00 00 
  402b7d:	48 89 44 24 18       	mov    %rax,0x18(%rsp)
  402b82:	31 c0                	xor    %eax,%eax
  402b84:	be 01 00 00 00       	mov    $0x1,%esi
  402b89:	bf 0d 00 00 00       	mov    $0xd,%edi
  402b8e:	e8 cd e1 ff ff       	callq  400d60 <signal@plt>
  402b93:	be 01 00 00 00       	mov    $0x1,%esi
  402b98:	bf 1d 00 00 00       	mov    $0x1d,%edi
  402b9d:	e8 be e1 ff ff       	callq  400d60 <signal@plt>
  402ba2:	be 01 00 00 00       	mov    $0x1,%esi
  402ba7:	bf 1d 00 00 00       	mov    $0x1d,%edi
  402bac:	e8 af e1 ff ff       	callq  400d60 <signal@plt>
  402bb1:	ba 00 00 00 00       	mov    $0x0,%edx
  402bb6:	be 01 00 00 00       	mov    $0x1,%esi
  402bbb:	bf 02 00 00 00       	mov    $0x2,%edi
  402bc0:	e8 cb e2 ff ff       	callq  400e90 <socket@plt>
  402bc5:	85 c0                	test   %eax,%eax
  402bc7:	79 4f                	jns    402c18 <init_driver+0xad>
  402bc9:	48 b8 45 72 72 6f 72 	movabs $0x43203a726f727245,%rax
  402bd0:	3a 20 43 
  402bd3:	48 89 45 00          	mov    %rax,0x0(%rbp)
  402bd7:	48 b8 6c 69 65 6e 74 	movabs $0x6e7520746e65696c,%rax
  402bde:	20 75 6e 
  402be1:	48 89 45 08          	mov    %rax,0x8(%rbp)
  402be5:	48 b8 61 62 6c 65 20 	movabs $0x206f7420656c6261,%rax
  402bec:	74 6f 20 
  402bef:	48 89 45 10          	mov    %rax,0x10(%rbp)
  402bf3:	48 b8 63 72 65 61 74 	movabs $0x7320657461657263,%rax
  402bfa:	65 20 73 
  402bfd:	48 89 45 18          	mov    %rax,0x18(%rbp)
  402c01:	c7 45 20 6f 63 6b 65 	movl   $0x656b636f,0x20(%rbp)
  402c08:	66 c7 45 24 74 00    	movw   $0x74,0x24(%rbp)
  402c0e:	b8 ff ff ff ff       	mov    $0xffffffff,%eax
  402c13:	e9 2a 01 00 00       	jmpq   402d42 <init_driver+0x1d7>
  402c18:	89 c3                	mov    %eax,%ebx
  402c1a:	bf 15 38 40 00       	mov    $0x403815,%edi
  402c1f:	e8 4c e1 ff ff       	callq  400d70 <gethostbyname@plt>
  402c24:	48 85 c0             	test   %rax,%rax
  402c27:	75 68                	jne    402c91 <init_driver+0x126>
  402c29:	48 b8 45 72 72 6f 72 	movabs $0x44203a726f727245,%rax
  402c30:	3a 20 44 
  402c33:	48 89 45 00          	mov    %rax,0x0(%rbp)
  402c37:	48 b8 4e 53 20 69 73 	movabs $0x6e7520736920534e,%rax
  402c3e:	20 75 6e 
  402c41:	48 89 45 08          	mov    %rax,0x8(%rbp)
  402c45:	48 b8 61 62 6c 65 20 	movabs $0x206f7420656c6261,%rax
  402c4c:	74 6f 20 
  402c4f:	48 89 45 10          	mov    %rax,0x10(%rbp)
  402c53:	48 b8 72 65 73 6f 6c 	movabs $0x2065766c6f736572,%rax
  402c5a:	76 65 20 
  402c5d:	48 89 45 18          	mov    %rax,0x18(%rbp)
  402c61:	48 b8 73 65 72 76 65 	movabs $0x6120726576726573,%rax
  402c68:	72 20 61 
  402c6b:	48 89 45 20          	mov    %rax,0x20(%rbp)
  402c6f:	c7 45 28 64 64 72 65 	movl   $0x65726464,0x28(%rbp)
  402c76:	66 c7 45 2c 73 73    	movw   $0x7373,0x2c(%rbp)
  402c7c:	c6 45 2e 00          	movb   $0x0,0x2e(%rbp)
  402c80:	89 df                	mov    %ebx,%edi
  402c82:	e8 a9 e0 ff ff       	callq  400d30 <close@plt>
  402c87:	b8 ff ff ff ff       	mov    $0xffffffff,%eax
  402c8c:	e9 b1 00 00 00       	jmpq   402d42 <init_driver+0x1d7>
  402c91:	48 c7 04 24 00 00 00 	movq   $0x0,(%rsp)
  402c98:	00 
  402c99:	48 c7 44 24 08 00 00 	movq   $0x0,0x8(%rsp)
  402ca0:	00 00 
  402ca2:	66 c7 04 24 02 00    	movw   $0x2,(%rsp)
  402ca8:	48 63 50 14          	movslq 0x14(%rax),%rdx
  402cac:	48 8b 40 18          	mov    0x18(%rax),%rax
  402cb0:	48 8b 30             	mov    (%rax),%rsi
  402cb3:	48 8d 7c 24 04       	lea    0x4(%rsp),%rdi
  402cb8:	b9 0c 00 00 00       	mov    $0xc,%ecx
  402cbd:	e8 be e0 ff ff       	callq  400d80 <__memmove_chk@plt>
  402cc2:	66 c7 44 24 02 3c 9a 	movw   $0x9a3c,0x2(%rsp)
  402cc9:	ba 10 00 00 00       	mov    $0x10,%edx
  402cce:	48 89 e6             	mov    %rsp,%rsi
  402cd1:	89 df                	mov    %ebx,%edi
  402cd3:	e8 88 e1 ff ff       	callq  400e60 <connect@plt>
  402cd8:	85 c0                	test   %eax,%eax
  402cda:	79 50                	jns    402d2c <init_driver+0x1c1>
  402cdc:	48 b8 45 72 72 6f 72 	movabs $0x55203a726f727245,%rax
  402ce3:	3a 20 55 
  402ce6:	48 89 45 00          	mov    %rax,0x0(%rbp)
  402cea:	48 b8 6e 61 62 6c 65 	movabs $0x6f7420656c62616e,%rax
  402cf1:	20 74 6f 
  402cf4:	48 89 45 08          	mov    %rax,0x8(%rbp)
  402cf8:	48 b8 20 63 6f 6e 6e 	movabs $0x7463656e6e6f6320,%rax
  402cff:	65 63 74 
  402d02:	48 89 45 10          	mov    %rax,0x10(%rbp)
  402d06:	48 b8 20 74 6f 20 73 	movabs $0x76726573206f7420,%rax
  402d0d:	65 72 76 
  402d10:	48 89 45 18          	mov    %rax,0x18(%rbp)
  402d14:	66 c7 45 20 65 72    	movw   $0x7265,0x20(%rbp)
  402d1a:	c6 45 22 00          	movb   $0x0,0x22(%rbp)
  402d1e:	89 df                	mov    %ebx,%edi
  402d20:	e8 0b e0 ff ff       	callq  400d30 <close@plt>
  402d25:	b8 ff ff ff ff       	mov    $0xffffffff,%eax
  402d2a:	eb 16                	jmp    402d42 <init_driver+0x1d7>
  402d2c:	89 df                	mov    %ebx,%edi
  402d2e:	e8 fd df ff ff       	callq  400d30 <close@plt>
  402d33:	66 c7 45 00 4f 4b    	movw   $0x4b4f,0x0(%rbp)
  402d39:	c6 45 02 00          	movb   $0x0,0x2(%rbp)
  402d3d:	b8 00 00 00 00       	mov    $0x0,%eax
  402d42:	48 8b 4c 24 18       	mov    0x18(%rsp),%rcx
  402d47:	64 48 33 0c 25 28 00 	xor    %fs:0x28,%rcx
  402d4e:	00 00 
  402d50:	74 05                	je     402d57 <init_driver+0x1ec>
  402d52:	e8 99 df ff ff       	callq  400cf0 <__stack_chk_fail@plt>
  402d57:	48 83 c4 28          	add    $0x28,%rsp
  402d5b:	5b                   	pop    %rbx
  402d5c:	5d                   	pop    %rbp
  402d5d:	c3                   	retq   

0000000000402d5e <driver_post>:
  402d5e:	53                   	push   %rbx
  402d5f:	4c 89 cb             	mov    %r9,%rbx
  402d62:	45 85 c0             	test   %r8d,%r8d
  402d65:	74 27                	je     402d8e <driver_post+0x30>
  402d67:	48 89 ca             	mov    %rcx,%rdx
  402d6a:	be 2a 38 40 00       	mov    $0x40382a,%esi
  402d6f:	bf 01 00 00 00       	mov    $0x1,%edi
  402d74:	b8 00 00 00 00       	mov    $0x0,%eax
  402d79:	e8 82 e0 ff ff       	callq  400e00 <__printf_chk@plt>
  402d7e:	66 c7 03 4f 4b       	movw   $0x4b4f,(%rbx)
  402d83:	c6 43 02 00          	movb   $0x0,0x2(%rbx)
  402d87:	b8 00 00 00 00       	mov    $0x0,%eax
  402d8c:	eb 3f                	jmp    402dcd <driver_post+0x6f>
  402d8e:	48 85 ff             	test   %rdi,%rdi
  402d91:	74 2c                	je     402dbf <driver_post+0x61>
  402d93:	80 3f 00             	cmpb   $0x0,(%rdi)
  402d96:	74 27                	je     402dbf <driver_post+0x61>
  402d98:	48 83 ec 08          	sub    $0x8,%rsp
  402d9c:	41 51                	push   %r9
  402d9e:	49 89 c9             	mov    %rcx,%r9
  402da1:	49 89 d0             	mov    %rdx,%r8
  402da4:	48 89 f9             	mov    %rdi,%rcx
  402da7:	48 89 f2             	mov    %rsi,%rdx
  402daa:	be 9a 3c 00 00       	mov    $0x3c9a,%esi
  402daf:	bf 15 38 40 00       	mov    $0x403815,%edi
  402db4:	e8 19 f6 ff ff       	callq  4023d2 <submitr>
  402db9:	48 83 c4 10          	add    $0x10,%rsp
  402dbd:	eb 0e                	jmp    402dcd <driver_post+0x6f>
  402dbf:	66 c7 03 4f 4b       	movw   $0x4b4f,(%rbx)
  402dc4:	c6 43 02 00          	movb   $0x0,0x2(%rbx)
  402dc8:	b8 00 00 00 00       	mov    $0x0,%eax
  402dcd:	5b                   	pop    %rbx
  402dce:	c3                   	retq   

0000000000402dcf <check>:
  402dcf:	89 f8                	mov    %edi,%eax
  402dd1:	c1 e8 1c             	shr    $0x1c,%eax
  402dd4:	85 c0                	test   %eax,%eax
  402dd6:	74 1d                	je     402df5 <check+0x26>
  402dd8:	b9 00 00 00 00       	mov    $0x0,%ecx
  402ddd:	eb 0b                	jmp    402dea <check+0x1b>
  402ddf:	89 f8                	mov    %edi,%eax
  402de1:	d3 e8                	shr    %cl,%eax
  402de3:	3c 0a                	cmp    $0xa,%al
  402de5:	74 14                	je     402dfb <check+0x2c>
  402de7:	83 c1 08             	add    $0x8,%ecx
  402dea:	83 f9 1f             	cmp    $0x1f,%ecx
  402ded:	7e f0                	jle    402ddf <check+0x10>
  402def:	b8 01 00 00 00       	mov    $0x1,%eax
  402df4:	c3                   	retq   
  402df5:	b8 00 00 00 00       	mov    $0x0,%eax
  402dfa:	c3                   	retq   
  402dfb:	b8 00 00 00 00       	mov    $0x0,%eax
  402e00:	c3                   	retq   

0000000000402e01 <gencookie>:
  402e01:	53                   	push   %rbx
  402e02:	83 c7 01             	add    $0x1,%edi
  402e05:	e8 96 de ff ff       	callq  400ca0 <srandom@plt>
  402e0a:	e8 b1 df ff ff       	callq  400dc0 <random@plt>
  402e0f:	89 c3                	mov    %eax,%ebx
  402e11:	89 c7                	mov    %eax,%edi
  402e13:	e8 b7 ff ff ff       	callq  402dcf <check>
  402e18:	85 c0                	test   %eax,%eax
  402e1a:	74 ee                	je     402e0a <gencookie+0x9>
  402e1c:	89 d8                	mov    %ebx,%eax
  402e1e:	5b                   	pop    %rbx
  402e1f:	c3                   	retq   

0000000000402e20 <__libc_csu_init>:
  402e20:	41 57                	push   %r15
  402e22:	41 56                	push   %r14
  402e24:	41 89 ff             	mov    %edi,%r15d
  402e27:	41 55                	push   %r13
  402e29:	41 54                	push   %r12
  402e2b:	4c 8d 25 de 1f 20 00 	lea    0x201fde(%rip),%r12        # 604e10 <__frame_dummy_init_array_entry>
  402e32:	55                   	push   %rbp
  402e33:	48 8d 2d de 1f 20 00 	lea    0x201fde(%rip),%rbp        # 604e18 <__do_global_dtors_aux_fini_array_entry>
  402e3a:	53                   	push   %rbx
  402e3b:	49 89 f6             	mov    %rsi,%r14
  402e3e:	49 89 d5             	mov    %rdx,%r13
  402e41:	4c 29 e5             	sub    %r12,%rbp
  402e44:	48 83 ec 08          	sub    $0x8,%rsp
  402e48:	48 c1 fd 03          	sar    $0x3,%rbp
  402e4c:	e8 f7 dd ff ff       	callq  400c48 <_init>
  402e51:	48 85 ed             	test   %rbp,%rbp
  402e54:	74 20                	je     402e76 <__libc_csu_init+0x56>
  402e56:	31 db                	xor    %ebx,%ebx
  402e58:	0f 1f 84 00 00 00 00 	nopl   0x0(%rax,%rax,1)
  402e5f:	00 
  402e60:	4c 89 ea             	mov    %r13,%rdx
  402e63:	4c 89 f6             	mov    %r14,%rsi
  402e66:	44 89 ff             	mov    %r15d,%edi
  402e69:	41 ff 14 dc          	callq  *(%r12,%rbx,8)
  402e6d:	48 83 c3 01          	add    $0x1,%rbx
  402e71:	48 39 eb             	cmp    %rbp,%rbx
  402e74:	75 ea                	jne    402e60 <__libc_csu_init+0x40>
  402e76:	48 83 c4 08          	add    $0x8,%rsp
  402e7a:	5b                   	pop    %rbx
  402e7b:	5d                   	pop    %rbp
  402e7c:	41 5c                	pop    %r12
  402e7e:	41 5d                	pop    %r13
  402e80:	41 5e                	pop    %r14
  402e82:	41 5f                	pop    %r15
  402e84:	c3                   	retq   
  402e85:	90                   	nop
  402e86:	66 2e 0f 1f 84 00 00 	nopw   %cs:0x0(%rax,%rax,1)
  402e8d:	00 00 00 

0000000000402e90 <__libc_csu_fini>:
  402e90:	f3 c3                	repz retq 

Disassembly of section .fini:

0000000000402e94 <_fini>:
  402e94:	48 83 ec 08          	sub    $0x8,%rsp
  402e98:	48 83 c4 08          	add    $0x8,%rsp
  402e9c:	c3                   	retq   
